libapertium3-3.4.so.0:_Z10alphabeticc
libapertium3-3.4.so.0:_ZN10AccentsMap10init_acmapEv
libapertium3-3.4.so.0:_ZN10AccentsMap10init_camapEv
libapertium3-3.4.so.0:_ZN10AccentsMap11init_localeEv
libapertium3-3.4.so.0:_ZN10AccentsMap3getENSt7__cxx1112basic_stringIwSt11char_traitsIwESaIwEEE
libapertium3-3.4.so.0:_ZN10AccentsMapC1Eb
libapertium3-3.4.so.0:_ZN10AccentsMapC2Eb
libapertium3-3.4.so.0:_ZN10AccentsMapD1Ev
libapertium3-3.4.so.0:_ZN10AccentsMapD2Ev
libapertium3-3.4.so.0:_ZN10ApertiumRE4readEP8_IO_FILE
libapertium3-3.4.so.0:_ZN10ApertiumRE7compileERKNSt7__cxx1112basic_stringIcSt11char_traitsIcESaIcEEE
libapertium3-3.4.so.0:_ZN10ApertiumREC1Ev
libapertium3-3.4.so.0:_ZN10ApertiumREC2Ev
libapertium3-3.4.so.0:_ZN10ApertiumRED1Ev
libapertium3-3.4.so.0:_ZN10ApertiumRED2Ev
libapertium3-3.4.so.0:_ZN10Collection3addERKSt3setIiSt4lessIiESaIiEE
libapertium3-3.4.so.0:_ZN10Collection4readEP8_IO_FILE
libapertium3-3.4.so.0:_ZN10Collection4sizeEv
libapertium3-3.4.so.0:_ZN10Collection5writeEP8_IO_FILE
libapertium3-3.4.so.0:_ZN10Collection7has_notERKSt3setIiSt4lessIiESaIiEE
libapertium3-3.4.so.0:_ZN10CollectionixERKSt3setIiSt4lessIiESaIiEE
libapertium3-3.4.so.0:_ZN10CollectionixEi
libapertium3-3.4.so.0:_ZN10Interchunk10checkIndexEP8_xmlNodeii
libapertium3-3.4.so.0:_ZN10Interchunk10evalStringB5cxx11EP8_xmlNode
libapertium3-3.4.so.0:_ZN10Interchunk10interchunkEP8_IO_FILES1_
libapertium3-3.4.so.0:_ZN10Interchunk10processAndEP8_xmlNode
libapertium3-3.4.so.0:_ZN10Interchunk10processLetEP8_xmlNode
libapertium3-3.4.so.0:_ZN10Interchunk10processNotEP8_xmlNode
libapertium3-3.4.so.0:_ZN10Interchunk10processOutEP8_xmlNode
libapertium3-3.4.so.0:_ZN10Interchunk11processRuleEP8_xmlNode
libapertium3-3.4.so.0:_ZN10Interchunk11processTestEP8_xmlNode
libapertium3-3.4.so.0:_ZN10Interchunk12collectRulesEP8_xmlNode
libapertium3-3.4.so.0:_ZN10Interchunk12getNullFlushEv
libapertium3-3.4.so.0:_ZN10Interchunk12processChunkB5cxx11EP8_xmlNode
libapertium3-3.4.so.0:_ZN10Interchunk12processEqualEP8_xmlNode
libapertium3-3.4.so.0:_ZN10Interchunk12setNullFlushEb
libapertium3-3.4.so.0:_ZN10Interchunk13collectMacrosEP8_xmlNode
libapertium3-3.4.so.0:_ZN10Interchunk13processAppendEP8_xmlNode
libapertium3-3.4.so.0:_ZN10Interchunk13processChooseEP8_xmlNode
libapertium3-3.4.so.0:_ZN10Interchunk14processLogicalEP8_xmlNode
libapertium3-3.4.so.0:_ZN10Interchunk14readInterchunkERKNSt7__cxx1112basic_stringIcSt11char_traitsIcESaIcEEE
libapertium3-3.4.so.0:_ZN10Interchunk15processEndsWithEP8_xmlNode
libapertium3-3.4.so.0:_ZN10Interchunk16processCallMacroEP8_xmlNode
libapertium3-3.4.so.0:_ZN10Interchunk17processBeginsWithEP8_xmlNode
libapertium3-3.4.so.0:_ZN10Interchunk17processModifyCaseEP8_xmlNode
libapertium3-3.4.so.0:_ZN10Interchunk18processInstructionEP8_xmlNode
libapertium3-3.4.so.0:_ZN10Interchunk19processEndsWithListEP8_xmlNode
libapertium3-3.4.so.0:_ZN10Interchunk21processBeginsWithListEP8_xmlNode
libapertium3-3.4.so.0:_ZN10Interchunk24processContainsSubstringEP8_xmlNode
libapertium3-3.4.so.0:_ZN10Interchunk29interchunk_wrapper_null_flushEP8_IO_FILES1_
libapertium3-3.4.so.0:_ZN10Interchunk4readERKNSt7__cxx1112basic_stringIcSt11char_traitsIcESaIcEEES7_
libapertium3-3.4.so.0:_ZN10Interchunk6caseOfERKNSt7__cxx1112basic_stringIcSt11char_traitsIcESaIcEEE
libapertium3-3.4.so.0:_ZN10Interchunk7destroyEv
libapertium3-3.4.so.0:_ZN10Interchunk8copycaseERKNSt7__cxx1112basic_stringIcSt11char_traitsIcESaIcEEES7_
libapertium3-3.4.so.0:_ZN10Interchunk8readDataEP8_IO_FILE
libapertium3-3.4.so.0:_ZN10Interchunk8setTraceEb
libapertium3-3.4.so.0:_ZN10Interchunk9applyRuleEv
libapertium3-3.4.so.0:_ZN10Interchunk9applyWordERKNSt7__cxx1112basic_stringIwSt11char_traitsIwESaIwEEE
libapertium3-3.4.so.0:_ZN10Interchunk9processInEP8_xmlNode
libapertium3-3.4.so.0:_ZN10Interchunk9processOrEP8_xmlNode
libapertium3-3.4.so.0:_ZN10Interchunk9readTokenEP8_IO_FILE
libapertium3-3.4.so.0:_ZN10InterchunkC1Ev
libapertium3-3.4.so.0:_ZN10InterchunkC2Ev
libapertium3-3.4.so.0:_ZN10InterchunkD1Ev
libapertium3-3.4.so.0:_ZN10InterchunkD2Ev
libapertium3-3.4.so.0:_ZN10TMXAligner10Dictionary4readEPKc
libapertium3-3.4.so.0:_ZN10TMXAligner10Dictionary5buildERKNS_15DictionaryItemsE
libapertium3-3.4.so.0:_ZN10TMXAligner10Dictionary7reverseERKS0_
libapertium3-3.4.so.0:_ZN10TMXAligner10scoreTrailERKSt6vectorISt4pairIiiESaIS2_EES6_
libapertium3-3.4.so.0:_ZN10TMXAligner11IBMModelOne10reestimateERKNS_12SentenceListES3_
libapertium3-3.4.so.0:_ZN10TMXAligner11IBMModelOne5buildERKNS_12SentenceListES3_
libapertium3-3.4.so.0:_ZN10TMXAligner11TrailScoresC1ERKSt6vectorISt4pairIiiESaIS3_EERKNS_13QuasiDiagonalIdEE
libapertium3-3.4.so.0:_ZN10TMXAligner11TrailScoresC2ERKSt6vectorISt4pairIiiESaIS3_EERKNS_13QuasiDiagonalIdEE
libapertium3-3.4.so.0:_ZN10TMXAligner11isParagraphERKSt6vectorINSt7__cxx1112basic_stringIcSt11char_traitsIcESaIcEEESaIS6_EE
libapertium3-3.4.so.0:_ZN10TMXAligner12FrequencyMap3addERKNSt7__cxx1112basic_stringIcSt11char_traitsIcESaIcEEE
libapertium3-3.4.so.0:_ZN10TMXAligner12FrequencyMap5buildERKNS_12SentenceListE
libapertium3-3.4.so.0:_ZN10TMXAligner12FrequencyMap5buildERKSt6vectorINSt7__cxx1112basic_stringIcSt11char_traitsIcESaIcEEESaIS7_EE
libapertium3-3.4.so.0:_ZN10TMXAligner12FrequencyMap6removeERKNSt7__cxx1112basic_stringIcSt11char_traitsIcESaIcEEE
libapertium3-3.4.so.0:_ZN10TMXAligner12FrequencyMap6removeERKSt6vectorINSt7__cxx1112basic_stringIcSt11char_traitsIcESaIcEEESaIS7_EE
libapertium3-3.4.so.0:_ZN10TMXAligner12SentenceList4readERSi
libapertium3-3.4.so.0:_ZN10TMXAligner12SentenceList9readNoIdsERSi
libapertium3-3.4.so.0:_ZN10TMXAligner12readBicorpusERSiRNS_12SentenceListES2_
libapertium3-3.4.so.0:_ZN10TMXAligner13removeRundlesERSt6vectorISt4pairIiiESaIS2_EERKSt3setIiSt4lessIiESaIiEE
libapertium3-3.4.so.0:_ZN10TMXAligner13writeBicorpusERSoRKNS_12SentenceListES3_
libapertium3-3.4.so.0:_ZN10TMXAligner14HalfDictionary4readERSi
libapertium3-3.4.so.0:_ZN10TMXAligner14naiveTranslateERKNS_15DictionaryItemsERKNS_12SentenceListERS3_
libapertium3-3.4.so.0:_ZN10TMXAligner14trelliToLadderERKNS_13QuasiDiagonalIhEERSt6vectorISt4pairIiiESaIS6_EE
libapertium3-3.4.so.0:_ZN10TMXAligner15DictionaryItems4readERSi
libapertium3-3.4.so.0:_ZN10TMXAligner15characterLengthERKNSt7__cxx1112basic_stringIcSt11char_traitsIcESaIcEEEb
libapertium3-3.4.so.0:_ZN10TMXAligner15characterLengthERKSt6vectorINSt7__cxx1112basic_stringIcSt11char_traitsIcESaIcEEESaIS6_EEb
libapertium3-3.4.so.0:_ZN10TMXAligner15characterLengthEiiRKNS_12SentenceListEb
libapertium3-3.4.so.0:_ZN10TMXAligner15dumpAlignMatrixERKNS_13QuasiDiagonalIiEEb
libapertium3-3.4.so.0:_ZN10TMXAligner15filterSentencesERNS_12SentenceListERKSt6vectorINSt7__cxx1112basic_stringIcSt11char_traitsIcESaIcEEESaIS8_EE
libapertium3-3.4.so.0:_ZN10TMXAligner15removeStopwordsERNS_12SentenceListES1_
libapertium3-3.4.so.0:_ZN10TMXAligner15scoreByIdentityERKSt6vectorINSt7__cxx1112basic_stringIcSt11char_traitsIcESaIcEEESaIS6_EESA_
libapertium3-3.4.so.0:_ZN10TMXAligner15scoreByModelOneERKSt6vectorINSt7__cxx1112basic_stringIcSt11char_traitsIcESaIcEEESaIS6_EESA_RKNS_11IBMModelOneE
libapertium3-3.4.so.0:_ZN10TMXAligner16dumpTrelliMatrixERKNS_13QuasiDiagonalIhEE
libapertium3-3.4.so.0:_ZN10TMXAligner16intersectionSizeERKSt6vectorINSt7__cxx1112basic_stringIcSt11char_traitsIcESaIcEEESaIS6_EESA_
libapertium3-3.4.so.0:_ZN10TMXAligner16main_alignerToolEiPPc
libapertium3-3.4.so.0:_ZN10TMXAligner16postprocessTrailERSt6vectorISt4pairIiiESaIS2_EERKNS_19TrailScoresIntervalEd
libapertium3-3.4.so.0:_ZN10TMXAligner16scoreTrailByFileERKSt6vectorISt4pairIiiESaIS2_EERKNSt7__cxx1112basic_stringIcSt11char_traitsIcESaIcEEE
libapertium3-3.4.so.0:_ZN10TMXAligner16trivialTranslateERKSt3mapINSt7__cxx1112basic_stringIcSt11char_traitsIcESaIcEEESt6vectorIS6_SaIS6_EESt4lessIS6_ESaISt4pairIKS6_S9_EEERKNS_8SentenceERSJ_
libapertium3-3.4.so.0:_ZN10TMXAligner17setSentenceValuesERKNS_12SentenceListERSt6vectorIdSaIdEEb
libapertium3-3.4.so.0:_ZN10TMXAligner18buildDynProgMatrixERKNS_13QuasiDiagonalIdEERKSt6vectorIdSaIdEES8_RS1_RNS0_IhEE
libapertium3-3.4.so.0:_ZN10TMXAligner18collectBisentencesERKSt6vectorISt4pairIiiESaIS2_EERKNS_13QuasiDiagonalIdEERKNS_12SentenceListESD_RSB_SE_d
libapertium3-3.4.so.0:_ZN10TMXAligner18exceptionalScoringERKSt6vectorINSt7__cxx1112basic_stringIcSt11char_traitsIcESaIcEEESaIS6_EESA_Rd
libapertium3-3.4.so.0:_ZN10TMXAligner18globalScoreOfTrailERKSt6vectorISt4pairIiiESaIS2_EERKNS_13QuasiDiagonalIdEERKNS_12SentenceListESD_
libapertium3-3.4.so.0:_ZN10TMXAligner18scoreByTranslationERKSt6vectorINSt7__cxx1112basic_stringIcSt11char_traitsIcESaIcEEESaIS6_EESA_RKNS_8TransLexE
libapertium3-3.4.so.0:_ZN10TMXAligner19TrailScoresIntervalC1ERKSt6vectorISt4pairIiiESaIS3_EERKNS_13QuasiDiagonalIdEERKNS_12SentenceListESE_
libapertium3-3.4.so.0:_ZN10TMXAligner19TrailScoresIntervalC2ERKSt6vectorISt4pairIiiESaIS3_EERKNS_13QuasiDiagonalIdEERKNS_12SentenceListESE_
libapertium3-3.4.so.0:_ZN10TMXAligner19buildDumbDictionaryERKNS_15DictionaryItemsERSt3mapINSt7__cxx1112basic_stringIcSt11char_traitsIcESaIcEEESt6vectorIS9_SaIS9_EESt4lessIS9_ESaISt4pairIKS9_SC_EEE
libapertium3-3.4.so.0:_ZN10TMXAligner19buildDumbDictionaryERSt3mapINSt7__cxx1112basic_stringIcSt11char_traitsIcESaIcEEESt6vectorIS6_SaIS6_EESt4lessIS6_ESaISt4pairIKS6_S9_EEERSD_RKNS_12SentenceListE
libapertium3-3.4.so.0:_ZN10TMXAligner19postprocessTrailEndERSt6vectorISt4pairIiiESaIS2_EERKNS_19TrailScoresIntervalERKd
libapertium3-3.4.so.0:_ZN10TMXAligner19scoreBisentenceListERKSt6vectorISt4pairIiiESaIS2_EES6_
libapertium3-3.4.so.0:_ZN10TMXAligner20BisentenceListScoresC1ERKSt6vectorISt4pairIiiESaIS3_EERKNS_13QuasiDiagonalIdEE
libapertium3-3.4.so.0:_ZN10TMXAligner20BisentenceListScoresC2ERKSt6vectorISt4pairIiiESaIS3_EERKNS_13QuasiDiagonalIdEE
libapertium3-3.4.so.0:_ZN10TMXAligner20fillPercentParameterER9ArgumentsRKNSt7__cxx1112basic_stringIcSt11char_traitsIcESaIcEEERd
libapertium3-3.4.so.0:_ZN10TMXAligner20filterTrailByQualityERSt6vectorISt4pairIiiESaIS2_EERKNS_19TrailScoresIntervalERKd
libapertium3-3.4.so.0:_ZN10TMXAligner20trivialTranslateWordERKSt3mapINSt7__cxx1112basic_stringIcSt11char_traitsIcESaIcEEESt6vectorIS6_SaIS6_EESt4lessIS6_ESaISt4pairIKS6_S9_EEERSD_RS9_
libapertium3-3.4.so.0:_ZN10TMXAligner21cautiouslyFilterTrailERSt6vectorISt4pairIiiESaIS2_EE
libapertium3-3.4.so.0:_ZN10TMXAligner21main_alignerToolUsageEv
libapertium3-3.4.so.0:_ZN10TMXAligner21postprocessTrailStartERSt6vectorISt4pairIiiESaIS2_EERKNS_19TrailScoresIntervalERKd
libapertium3-3.4.so.0:_ZN10TMXAligner21trailToBisentenceListERKSt6vectorISt4pairIiiESaIS2_EERKNS_11TrailScoresEdRS4_
libapertium3-3.4.so.0:_ZN10TMXAligner21trailToBisentenceListERKSt6vectorISt4pairIiiESaIS2_EERS4_
libapertium3-3.4.so.0:_ZN10TMXAligner22alignerToolWithObjectsERKNS_15DictionaryItemsERNS_12SentenceListES4_RK15AlignParametersRSo
libapertium3-3.4.so.0:_ZN10TMXAligner22removeEnglishStopwordsERNS_12SentenceListE
libapertium3-3.4.so.0:_ZN10TMXAligner22sortNormalizeSentencesERNS_12SentenceListE
libapertium3-3.4.so.0:_ZN10TMXAligner24alignerToolWithFilenamesERKNS_15DictionaryItemsERKNSt7__cxx1112basic_stringIcSt11char_traitsIcESaIcEEESA_RK15AlignParametersSA_
libapertium3-3.4.so.0:_ZN10TMXAligner24buildDumbMultiDictionaryERKNS_15DictionaryItemsERSt8multimapINSt7__cxx1112basic_stringIcSt11char_traitsIcESaIcEEESt6vectorIS9_SaIS9_EESt4lessIS9_ESaISt4pairIKS9_SC_EEEb
libapertium3-3.4.so.0:_ZN10TMXAligner24cStyleStringsToStringSetEPPKcRSt3setINSt7__cxx1112basic_stringIcSt11char_traitsIcESaIcEEESt4lessIS9_ESaIS9_EE
libapertium3-3.4.so.0:_ZN10TMXAligner24removeHungarianStopwordsERNS_12SentenceListE
libapertium3-3.4.so.0:_ZN10TMXAligner24spaceOutBySentenceLengthERSt6vectorISt4pairIiiESaIS2_EERKNS_12SentenceListES8_b
libapertium3-3.4.so.0:_ZN10TMXAligner25borderDetailedAlignMatrixERNS_13QuasiDiagonalIdEERKSt6vectorISt4pairIiiESaIS5_EEi
libapertium3-3.4.so.0:_ZN10TMXAligner25countIntersectionOfTrailsERKSt6vectorISt4pairIiiESaIS2_EES6_
libapertium3-3.4.so.0:_ZN10TMXAligner25normalizeTextsForIdentityERKNS_15DictionaryItemsERKNS_12SentenceListES5_RS3_S6_
libapertium3-3.4.so.0:_ZN10TMXAligner25readTrailOrBisentenceListERSiRSt6vectorISt4pairIiiESaIS3_EE
libapertium3-3.4.so.0:_ZN10TMXAligner25scoreBisentenceListByFileERKSt6vectorISt4pairIiiESaIS2_EERKNSt7__cxx1112basic_stringIcSt11char_traitsIcESaIcEEE
libapertium3-3.4.so.0:_ZN10TMXAligner26postprocessTrailByTopologyERSt6vectorISt4pairIiiESaIS2_EEd
libapertium3-3.4.so.0:_ZN10TMXAligner26scoreTrailOrBisentenceListERKSt6vectorISt4pairIiiESaIS2_EES6_
libapertium3-3.4.so.0:_ZN10TMXAligner26temporaryDumpOfAlignMatrixERSoRKNS_13QuasiDiagonalIdEE
libapertium3-3.4.so.0:_ZN10TMXAligner27postprocessTrailStartAndEndERSt6vectorISt4pairIiiESaIS2_EERKNS_19TrailScoresIntervalEd
libapertium3-3.4.so.0:_ZN10TMXAligner27specializedIntersectionSizeERKSt6vectorINSt7__cxx1112basic_stringIcSt11char_traitsIcESaIcEEESaIS6_EESA_
libapertium3-3.4.so.0:_ZN10TMXAligner28trivialTranslateSentenceListERKSt3mapINSt7__cxx1112basic_stringIcSt11char_traitsIcESaIcEEESt6vectorIS6_SaIS6_EESt4lessIS6_ESaISt4pairIKS6_S9_EEERKNS_12SentenceListERSJ_
libapertium3-3.4.so.0:_ZN10TMXAligner29filterBisentenceListByQualityERSt6vectorISt4pairIiiESaIS2_EERKNS_13QuasiDiagonalIdEERKd
libapertium3-3.4.so.0:_ZN10TMXAligner34sentenceListsToAlignMatrixIdentityERKNS_12SentenceListES2_RNS_13QuasiDiagonalIdEE
libapertium3-3.4.so.0:_ZN10TMXAligner35buildDumbDictionaryUsingFrequenciesERKNS_15DictionaryItemsERNS_12FrequencyMapERSt3mapINSt7__cxx1112basic_stringIcSt11char_traitsIcESaIcEEESt6vectorISB_SaISB_EESt4lessISB_ESaISt4pairIKSB_SE_EEE
libapertium3-3.4.so.0:_ZN10TMXAligner37sentenceListsToAlignMatrixIBMModelOneERKNS_12SentenceListES2_RKNS_11IBMModelOneERNS_13QuasiDiagonalIdEE
libapertium3-3.4.so.0:_ZN10TMXAligner37sentenceListsToAlignMatrixTranslationERKNS_12SentenceListES2_RKNS_8TransLexERNS_13QuasiDiagonalIdEE
libapertium3-3.4.so.0:_ZN10TMXAligner4readERSt6vectorINSt7__cxx1112basic_stringIcSt11char_traitsIcESaIcEEESaIS6_EERSi
libapertium3-3.4.so.0:_ZN10TMXAligner5alignERKNS_13QuasiDiagonalIdEERKSt6vectorIdSaIdEES8_RS4_ISt4pairIiiESaISA_EERS1_
libapertium3-3.4.so.0:_ZN10TMXAligner5splitENSt7__cxx1112basic_stringIcSt11char_traitsIcESaIcEEERSt6vectorIS5_SaIS5_EEc
libapertium3-3.4.so.0:_ZN10TMXAligner6setBoxERNS_13QuasiDiagonalIdEEiiii
libapertium3-3.4.so.0:_ZN10TMXAligner8TransLex3addERKNSt7__cxx1112basic_stringIcSt11char_traitsIcESaIcEEES8_
libapertium3-3.4.so.0:_ZN10TMXAligner8TransLex5buildERKNS_15DictionaryItemsE
libapertium3-3.4.so.0:_ZN10TMXAligner8eatwhiteERSi
libapertium3-3.4.so.0:_ZN10TMXAligner8isNumberERKNSt7__cxx1112basic_stringIcSt11char_traitsIcESaIcEEE
libapertium3-3.4.so.0:_ZN10TMXAligner8oneToOneERKSt6vectorISt4pairIiiESaIS2_EEi
libapertium3-3.4.so.0:_ZN10TMXAligner9closenessEdd
libapertium3-3.4.so.0:_ZN10TMXBuilder10compatibleEP8_IO_FILES1_b
libapertium3-3.4.so.0:_ZN10TMXBuilder10printTableEPijj
libapertium3-3.4.so.0:_ZN10TMXBuilder10setMaxEditEi
libapertium3-3.4.so.0:_ZN10TMXBuilder10setPercentEd
libapertium3-3.4.so.0:_ZN10TMXBuilder11generateTMXEP8_IO_FILES1_S1_
libapertium3-3.4.so.0:_ZN10TMXBuilder11printTUCondEP8_IO_FILERKNSt7__cxx1112basic_stringIwSt11char_traitsIwESaIwEEES9_b
libapertium3-3.4.so.0:_ZN10TMXBuilder11restOfBlankB5cxx11EP8_IO_FILE
libapertium3-3.4.so.0:_ZN10TMXBuilder11reverseListERKSt6vectorINSt7__cxx1112basic_stringIwSt11char_traitsIwESaIwEEESaIS6_EE
libapertium3-3.4.so.0:_ZN10TMXBuilder11setLowLimitEi
libapertium3-3.4.so.0:_ZN10TMXBuilder12editDistanceERKNSt7__cxx1112basic_stringIwSt11char_traitsIwESaIwEEES7_j
libapertium3-3.4.so.0:_ZN10TMXBuilder12sentenceListB5cxx11EP8_IO_FILE
libapertium3-3.4.so.0:_ZN10TMXBuilder12splitAndMoveEP8_IO_FILERKNSt7__cxx1112basic_stringIcSt11char_traitsIcESaIcEEE
libapertium3-3.4.so.0:_ZN10TMXBuilder13setWindowSizeEi
libapertium3-3.4.so.0:_ZN10TMXBuilder14setTranslationERKNSt7__cxx1112basic_stringIcSt11char_traitsIcESaIcEEE
libapertium3-3.4.so.0:_ZN10TMXBuilder15extractFragmentERKSt6vectorINSt7__cxx1112basic_stringIwSt11char_traitsIwESaIwEEESaIS6_EEjj
libapertium3-3.4.so.0:_ZN10TMXBuilder16isRemovablePunctERKw
libapertium3-3.4.so.0:_ZN10TMXBuilder16levenshteinTableERSt6vectorINSt7__cxx1112basic_stringIwSt11char_traitsIwESaIwEEESaIS6_EES9_jj
libapertium3-3.4.so.0:_ZN10TMXBuilder16setDiagonalWidthEi
libapertium3-3.4.so.0:_ZN10TMXBuilder22setEditDistancePercentEd
libapertium3-3.4.so.0:_ZN10TMXBuilder4min2Eii
libapertium3-3.4.so.0:_ZN10TMXBuilder4min3Eiii
libapertium3-3.4.so.0:_ZN10TMXBuilder5checkERKNSt7__cxx1112basic_stringIcSt11char_traitsIcESaIcEEES7_b
libapertium3-3.4.so.0:_ZN10TMXBuilder6argminEiii
libapertium3-3.4.so.0:_ZN10TMXBuilder6filterERKNSt7__cxx1112basic_stringIwSt11char_traitsIwESaIwEEE
libapertium3-3.4.so.0:_ZN10TMXBuilder6nextTUB5cxx11EP8_IO_FILE
libapertium3-3.4.so.0:_ZN10TMXBuilder6weightERKNSt7__cxx1112basic_stringIwSt11char_traitsIwESaIwEEE
libapertium3-3.4.so.0:_ZN10TMXBuilder6xmlizeERKNSt7__cxx1112basic_stringIwSt11char_traitsIwESaIwEEE
libapertium3-3.4.so.0:_ZN10TMXBuilder7setStepEi
libapertium3-3.4.so.0:_ZN10TMXBuilder7similarERKNSt7__cxx1112basic_stringIwSt11char_traitsIwESaIwEEES7_
libapertium3-3.4.so.0:_ZN10TMXBuilder8generateERKNSt7__cxx1112basic_stringIcSt11char_traitsIcESaIcEEES7_S7_
libapertium3-3.4.so.0:_ZN10TMXBuilder8outputTUEP8_IO_FILES1_S1_
libapertium3-3.4.so.0:_ZN10TMXBuilder9nextBlankB5cxx11EP8_IO_FILE
libapertium3-3.4.so.0:_ZN10TMXBuilderC1ERKNSt7__cxx1112basic_stringIwSt11char_traitsIwESaIwEEES7_
libapertium3-3.4.so.0:_ZN10TMXBuilderC2ERKNSt7__cxx1112basic_stringIwSt11char_traitsIwESaIwEEES7_
libapertium3-3.4.so.0:_ZN10TMXBuilderD1Ev
libapertium3-3.4.so.0:_ZN10TMXBuilderD2Ev
libapertium3-3.4.so.0:_ZN10TaggerData10addDiscardERKNSt7__cxx1112basic_stringIwSt11char_traitsIwESaIwEEE
libapertium3-3.4.so.0:_ZN10TaggerData11getTagIndexB5cxx11Ev
libapertium3-3.4.so.0:_ZN10TaggerData11setTagIndexERKSt3mapINSt7__cxx1112basic_stringIwSt11char_traitsIwESaIwEEEi5LtstrSaISt4pairIKS6_iEEE
libapertium3-3.4.so.0:_ZN10TaggerData12getArrayTagsB5cxx11Ev
libapertium3-3.4.so.0:_ZN10TaggerData12getConstantsEv
libapertium3-3.4.so.0:_ZN10TaggerData12getOpenClassEv
libapertium3-3.4.so.0:_ZN10TaggerData12setArrayTagsERKSt6vectorINSt7__cxx1112basic_stringIwSt11char_traitsIwESaIwEEESaIS6_EE
libapertium3-3.4.so.0:_ZN10TaggerData12setConstantsERK15ConstantManager
libapertium3-3.4.so.0:_ZN10TaggerData12setOpenClassERKSt3setIiSt4lessIiESaIiEE
libapertium3-3.4.so.0:_ZN10TaggerData14getForbidRulesEv
libapertium3-3.4.so.0:_ZN10TaggerData14getPatternListEv
libapertium3-3.4.so.0:_ZN10TaggerData14getPreferRulesB5cxx11Ev
libapertium3-3.4.so.0:_ZN10TaggerData14setForbidRulesERSt6vectorI11TForbidRuleSaIS1_EE
libapertium3-3.4.so.0:_ZN10TaggerData14setPatternListERK11PatternList
libapertium3-3.4.so.0:_ZN10TaggerData14setPreferRulesERKSt6vectorINSt7__cxx1112basic_stringIwSt11char_traitsIwESaIwEEESaIS6_EE
libapertium3-3.4.so.0:_ZN10TaggerData15getDiscardRulesB5cxx11Ev
libapertium3-3.4.so.0:_ZN10TaggerData15getEnforceRulesEv
libapertium3-3.4.so.0:_ZN10TaggerData15setDiscardRulesERKSt6vectorINSt7__cxx1112basic_stringIwSt11char_traitsIwESaIwEEESaIS6_EE
libapertium3-3.4.so.0:_ZN10TaggerData15setEnforceRulesERKSt6vectorI17TEnforceAfterRuleSaIS1_EE
libapertium3-3.4.so.0:_ZN10TaggerData4copyERKS_
libapertium3-3.4.so.0:_ZN10TaggerData9getOutputEv
libapertium3-3.4.so.0:_ZN10TaggerData9setOutputERK10Collection
libapertium3-3.4.so.0:_ZN10TaggerDataC1ERKS_
libapertium3-3.4.so.0:_ZN10TaggerDataC1Ev
libapertium3-3.4.so.0:_ZN10TaggerDataC2ERKS_
libapertium3-3.4.so.0:_ZN10TaggerDataC2Ev
libapertium3-3.4.so.0:_ZN10TaggerDataD0Ev
libapertium3-3.4.so.0:_ZN10TaggerDataD1Ev
libapertium3-3.4.so.0:_ZN10TaggerDataD2Ev
libapertium3-3.4.so.0:_ZN10TaggerDataaSERKS_
libapertium3-3.4.so.0:_ZN10TaggerWord11get_show_sfEv
libapertium3-3.4.so.0:_ZN10TaggerWord11set_show_sfEb
libapertium3-3.4.so.0:_ZN10TaggerWord12get_plus_cutEv
libapertium3-3.4.so.0:_ZN10TaggerWord12setArrayTagsERKSt6vectorINSt7__cxx1112basic_stringIwSt11char_traitsIwESaIwEEESaIS6_EE
libapertium3-3.4.so.0:_ZN10TaggerWord12set_plus_cutERKb
libapertium3-3.4.so.0:_ZN10TaggerWord14outputOriginalEP8_IO_FILE
libapertium3-3.4.so.0:_ZN10TaggerWord15get_string_tagsB5cxx11Ev
libapertium3-3.4.so.0:_ZN10TaggerWord16get_lexical_formB5cxx11ERii
libapertium3-3.4.so.0:_ZN10TaggerWord18add_ignored_stringERKNSt7__cxx1112basic_stringIwSt11char_traitsIwESaIwEEE
libapertium3-3.4.so.0:_ZN10TaggerWord18discardOnAmbiguityERKNSt7__cxx1112basic_stringIwSt11char_traitsIwESaIwEEE
libapertium3-3.4.so.0:_ZN10TaggerWord20get_superficial_formB5cxx11Ev
libapertium3-3.4.so.0:_ZN10TaggerWord20set_superficial_formERKNSt7__cxx1112basic_stringIwSt11char_traitsIwESaIwEEE
libapertium3-3.4.so.0:_ZN10TaggerWord24get_all_chosen_tag_firstB5cxx11ERii
libapertium3-3.4.so.0:_ZN10TaggerWord39get_lexical_form_without_ignored_stringB5cxx11ERii
libapertium3-3.4.so.0:_ZN10TaggerWord5matchERKNSt7__cxx1112basic_stringIwSt11char_traitsIwESaIwEEES7_
libapertium3-3.4.so.0:_ZN10TaggerWord5printEv
libapertium3-3.4.so.0:_ZN10TaggerWord7add_tagERiRKNSt7__cxx1112basic_stringIwSt11char_traitsIwESaIwEEERKSt6vectorIS6_SaIS6_EE
libapertium3-3.4.so.0:_ZN10TaggerWord8get_tagsEv
libapertium3-3.4.so.0:_ZN10TaggerWordC1ERKS_
libapertium3-3.4.so.0:_ZN10TaggerWordC1Eb
libapertium3-3.4.so.0:_ZN10TaggerWordC2ERKS_
libapertium3-3.4.so.0:_ZN10TaggerWordC2Eb
libapertium3-3.4.so.0:_ZN10TaggerWordD0Ev
libapertium3-3.4.so.0:_ZN10TaggerWordD1Ev
libapertium3-3.4.so.0:_ZN10TaggerWordD2Ev
libapertium3-3.4.so.0:_ZN11StringUtils10substituteERKNSt7__cxx1112basic_stringIwSt11char_traitsIwESaIwEEES7_S7_
libapertium3-3.4.so.0:_ZN11StringUtils11itoa_stringB5cxx11Ei
libapertium3-3.4.so.0:_ZN11StringUtils13split_wstringERKNSt7__cxx1112basic_stringIwSt11char_traitsIwESaIwEEES7_
libapertium3-3.4.so.0:_ZN11StringUtils14vector2wstringERKSt6vectorINSt7__cxx1112basic_stringIwSt11char_traitsIwESaIwEEESaIS6_EE
libapertium3-3.4.so.0:_ZN11StringUtils4ftoaB5cxx11Ed
libapertium3-3.4.so.0:_ZN11StringUtils4itoaB5cxx11Ei
libapertium3-3.4.so.0:_ZN11StringUtils4trimERKNSt7__cxx1112basic_stringIwSt11char_traitsIwESaIwEEE
libapertium3-3.4.so.0:_ZN11StringUtils7tolowerERKNSt7__cxx1112basic_stringIwSt11char_traitsIwESaIwEEE
libapertium3-3.4.so.0:_ZN11StringUtils7toupperERKNSt7__cxx1112basic_stringIwSt11char_traitsIwESaIwEEE
libapertium3-3.4.so.0:_ZN12MorphoStream12getEndOfFileEv
libapertium3-3.4.so.0:_ZN12MorphoStream12lrlmClassifyERKNSt7__cxx1112basic_stringIwSt11char_traitsIwESaIwEEERi
libapertium3-3.4.so.0:_ZN12MorphoStream12setEndOfFileEb
libapertium3-3.4.so.0:_ZN12MorphoStream12setNullFlushEb
libapertium3-3.4.so.0:_ZN12MorphoStream13get_next_wordEv
libapertium3-3.4.so.0:_ZN12MorphoStream14readRestOfWordERi
libapertium3-3.4.so.0:_ZN12MorphoStreamC1EP8_IO_FILEbP10TaggerData
libapertium3-3.4.so.0:_ZN12MorphoStreamC2EP8_IO_FILEbP10TaggerData
libapertium3-3.4.so.0:_ZN12MorphoStreamD1Ev
libapertium3-3.4.so.0:_ZN12MorphoStreamD2Ev
libapertium3-3.4.so.0:_ZN12TransferData11getAlphabetEv
libapertium3-3.4.so.0:_ZN12TransferData12getAttrItemsB5cxx11Ev
libapertium3-3.4.so.0:_ZN12TransferData12getVariablesB5cxx11Ev
libapertium3-3.4.so.0:_ZN12TransferData12writeRegexpsEP8_IO_FILE
libapertium3-3.4.so.0:_ZN12TransferData13getTransducerEv
libapertium3-3.4.so.0:_ZN12TransferData4copyERKS_
libapertium3-3.4.so.0:_ZN12TransferData5writeEP8_IO_FILE
libapertium3-3.4.so.0:_ZN12TransferData7destroyEv
libapertium3-3.4.so.0:_ZN12TransferData8getListsB5cxx11Ev
libapertium3-3.4.so.0:_ZN12TransferData9getFinalsEv
libapertium3-3.4.so.0:_ZN12TransferData9getMacrosB5cxx11Ev
libapertium3-3.4.so.0:_ZN12TransferDataC1ERKS_
libapertium3-3.4.so.0:_ZN12TransferDataC1Ev
libapertium3-3.4.so.0:_ZN12TransferDataC2ERKS_
libapertium3-3.4.so.0:_ZN12TransferDataC2Ev
libapertium3-3.4.so.0:_ZN12TransferDataD1Ev
libapertium3-3.4.so.0:_ZN12TransferDataD2Ev
libapertium3-3.4.so.0:_ZN12TransferDataaSERKS_
libapertium3-3.4.so.0:_ZN12TransferMult10acceptionsENSt7__cxx1112basic_stringIwSt11char_traitsIwESaIwEEE
libapertium3-3.4.so.0:_ZN12TransferMult13isDefaultWordERKNSt7__cxx1112basic_stringIwSt11char_traitsIwESaIwEEE
libapertium3-3.4.so.0:_ZN12TransferMult13writeMultipleESt14_List_iteratorISt6vectorINSt7__cxx1112basic_stringIwSt11char_traitsIwESaIwEEESaIS7_EEES0_IS7_ESt20_List_const_iteratorIS9_ES7_b
libapertium3-3.4.so.0:_ZN12TransferMult4readERKNSt7__cxx1112basic_stringIcSt11char_traitsIcESaIcEEES7_
libapertium3-3.4.so.0:_ZN12TransferMult7destroyEv
libapertium3-3.4.so.0:_ZN12TransferMult7readBilERKNSt7__cxx1112basic_stringIcSt11char_traitsIcESaIcEEE
libapertium3-3.4.so.0:_ZN12TransferMult8readDataEP8_IO_FILE
libapertium3-3.4.so.0:_ZN12TransferMult8transferEP8_IO_FILES1_
libapertium3-3.4.so.0:_ZN12TransferMult9applyRuleEv
libapertium3-3.4.so.0:_ZN12TransferMult9applyWordERKNSt7__cxx1112basic_stringIwSt11char_traitsIwESaIwEEE
libapertium3-3.4.so.0:_ZN12TransferMult9readTokenEP8_IO_FILE
libapertium3-3.4.so.0:_ZN12TransferMultC1Ev
libapertium3-3.4.so.0:_ZN12TransferMultC2Ev
libapertium3-3.4.so.0:_ZN12TransferMultD1Ev
libapertium3-3.4.so.0:_ZN12TransferMultD2Ev
libapertium3-3.4.so.0:_ZN12TransferWord4copyERKS_
libapertium3-3.4.so.0:_ZN12TransferWord4initERKNSt7__cxx1112basic_stringIcSt11char_traitsIcESaIcEEES7_
libapertium3-3.4.so.0:_ZN12TransferWord6sourceB5cxx11ERK10ApertiumREb
libapertium3-3.4.so.0:_ZN12TransferWord6targetB5cxx11ERK10ApertiumREb
libapertium3-3.4.so.0:_ZN12TransferWord7destroyEv
libapertium3-3.4.so.0:_ZN12TransferWord9setSourceERK10ApertiumRERKNSt7__cxx1112basic_stringIcSt11char_traitsIcESaIcEEEb
libapertium3-3.4.so.0:_ZN12TransferWord9setTargetERK10ApertiumRERKNSt7__cxx1112basic_stringIcSt11char_traitsIcESaIcEEEb
libapertium3-3.4.so.0:_ZN12TransferWordC1ERKNSt7__cxx1112basic_stringIcSt11char_traitsIcESaIcEEES7_i
libapertium3-3.4.so.0:_ZN12TransferWordC1ERKS_
libapertium3-3.4.so.0:_ZN12TransferWordC1Ev
libapertium3-3.4.so.0:_ZN12TransferWordC2ERKNSt7__cxx1112basic_stringIcSt11char_traitsIcESaIcEEES7_i
libapertium3-3.4.so.0:_ZN12TransferWordC2ERKS_
libapertium3-3.4.so.0:_ZN12TransferWordC2Ev
libapertium3-3.4.so.0:_ZN12TransferWordD1Ev
libapertium3-3.4.so.0:_ZN12TransferWordD2Ev
libapertium3-3.4.so.0:_ZN12TransferWordaSERKS_
libapertium3-3.4.so.0:_ZN12UtfConverter15conversionErrorEv
libapertium3-3.4.so.0:_ZN12UtfConverter18ConvertUTF16toUTF8EPPKtS1_PPhS3_NS_15ConversionFlagsE
libapertium3-3.4.so.0:_ZN12UtfConverter18ConvertUTF32toUTF8EPPKjS1_PPhS3_NS_15ConversionFlagsE
libapertium3-3.4.so.0:_ZN12UtfConverter18ConvertUTF8toUTF16EPPKhS1_PPtS3_NS_15ConversionFlagsE
libapertium3-3.4.so.0:_ZN12UtfConverter18ConvertUTF8toUTF32EPPKhS1_PPjS3_NS_15ConversionFlagsE
libapertium3-3.4.so.0:_ZN12UtfConverter19ConvertUTF16toUTF32EPPKtS1_PPjS3_NS_15ConversionFlagsE
libapertium3-3.4.so.0:_ZN12UtfConverter19ConvertUTF32toUTF16EPPKjS1_PPtS3_NS_15ConversionFlagsE
libapertium3-3.4.so.0:_ZN12UtfConverter19isLegalUTF8SequenceEPKhS1_
libapertium3-3.4.so.0:_ZN12UtfConverter6toUtf8ERKNSt7__cxx1112basic_stringIwSt11char_traitsIwESaIwEEE
libapertium3-3.4.so.0:_ZN12UtfConverter8fromUtf8ERKNSt7__cxx1112basic_stringIcSt11char_traitsIcESaIcEEE
libapertium3-3.4.so.0:_ZN12tagger_utils11fatal_errorERKNSt7__cxx1112basic_stringIwSt11char_traitsIwESaIwEEE
libapertium3-3.4.so.0:_ZN12tagger_utils11nguiones_fsERKNSt7__cxx1112basic_stringIwSt11char_traitsIwESaIwEEE
libapertium3-3.4.so.0:_ZN12tagger_utils15file_name_errorERKNSt7__cxx1112basic_stringIcSt11char_traitsIcESaIcEEE
libapertium3-3.4.so.0:_ZN12tagger_utils15read_dictionaryEP8_IO_FILER10TaggerData
libapertium3-3.4.so.0:_ZN12tagger_utils17ntokens_multiwordERKNSt7__cxx1112basic_stringIwSt11char_traitsIwESaIwEEE
libapertium3-3.4.so.0:_ZN12tagger_utils18clear_array_doubleEPdi
libapertium3-3.4.so.0:_ZN12tagger_utils18clear_array_vectorEPSt6vectorIiSaIiEEi
libapertium3-3.4.so.0:_ZN12tagger_utils23require_ambiguity_classER10TaggerDataRSt3setIiSt4lessIiESaIiEER10TaggerWord
libapertium3-3.4.so.0:_ZN12tagger_utils28find_similar_ambiguity_classER10TaggerDataRSt3setIiSt4lessIiESaIiEE
libapertium3-3.4.so.0:_ZN12tagger_utils31require_similar_ambiguity_classER10TaggerDataRSt3setIiSt4lessIiESaIiEER10TaggerWordb
libapertium3-3.4.so.0:_ZN12tagger_utils4itoaEi
libapertium3-3.4.so.0:_ZN12tagger_utils4trimENSt7__cxx1112basic_stringIwSt11char_traitsIwESaIwEEE
libapertium3-3.4.so.0:_ZN13TaggerDataHMM16setProbabilitiesEiiPPdS1_
libapertium3-3.4.so.0:_ZN13TaggerDataHMM4getAEv
libapertium3-3.4.so.0:_ZN13TaggerDataHMM4getBEv
libapertium3-3.4.so.0:_ZN13TaggerDataHMM4getMEv
libapertium3-3.4.so.0:_ZN13TaggerDataHMM4getNEv
libapertium3-3.4.so.0:_ZN13TaggerDataHMM4readEP8_IO_FILE
libapertium3-3.4.so.0:_ZN13TaggerDataHMM5writeEP8_IO_FILE
libapertium3-3.4.so.0:_ZN13TaggerDataHMM7destroyEv
libapertium3-3.4.so.0:_ZN13TaggerDataHMMC1ERK10TaggerData
libapertium3-3.4.so.0:_ZN13TaggerDataHMMC1ERKS_
libapertium3-3.4.so.0:_ZN13TaggerDataHMMC1Ev
libapertium3-3.4.so.0:_ZN13TaggerDataHMMC2ERK10TaggerData
libapertium3-3.4.so.0:_ZN13TaggerDataHMMC2ERKS_
libapertium3-3.4.so.0:_ZN13TaggerDataHMMC2Ev
libapertium3-3.4.so.0:_ZN13TaggerDataHMMD0Ev
libapertium3-3.4.so.0:_ZN13TaggerDataHMMD1Ev
libapertium3-3.4.so.0:_ZN13TaggerDataHMMD2Ev
libapertium3-3.4.so.0:_ZN13TaggerDataHMMaSERKS_
libapertium3-3.4.so.0:_ZN13TaggerDataLSW16setProbabilitiesEiPPPd
libapertium3-3.4.so.0:_ZN13TaggerDataLSW4getDEv
libapertium3-3.4.so.0:_ZN13TaggerDataLSW4getNEv
libapertium3-3.4.so.0:_ZN13TaggerDataLSW4readEP8_IO_FILE
libapertium3-3.4.so.0:_ZN13TaggerDataLSW5writeEP8_IO_FILE
libapertium3-3.4.so.0:_ZN13TaggerDataLSW7destroyEv
libapertium3-3.4.so.0:_ZN13TaggerDataLSWC1ERK10TaggerData
libapertium3-3.4.so.0:_ZN13TaggerDataLSWC1ERKS_
libapertium3-3.4.so.0:_ZN13TaggerDataLSWC1Ev
libapertium3-3.4.so.0:_ZN13TaggerDataLSWC2ERK10TaggerData
libapertium3-3.4.so.0:_ZN13TaggerDataLSWC2ERKS_
libapertium3-3.4.so.0:_ZN13TaggerDataLSWC2Ev
libapertium3-3.4.so.0:_ZN13TaggerDataLSWD0Ev
libapertium3-3.4.so.0:_ZN13TaggerDataLSWD1Ev
libapertium3-3.4.so.0:_ZN13TaggerDataLSWD2Ev
libapertium3-3.4.so.0:_ZN13TaggerDataLSWaSERKS_
libapertium3-3.4.so.0:_ZN13TransferInstr10getContentB5cxx11Ev
libapertium3-3.4.so.0:_ZN13TransferInstr10getPointerEv
libapertium3-3.4.so.0:_ZN13TransferInstr12getConditionEv
libapertium3-3.4.so.0:_ZN13TransferInstr4copyERKS_
libapertium3-3.4.so.0:_ZN13TransferInstr6getPosEv
libapertium3-3.4.so.0:_ZN13TransferInstr7destroyEv
libapertium3-3.4.so.0:_ZN13TransferInstr7getTypeEv
libapertium3-3.4.so.0:_ZN13TransferInstrC1E17TransferInstrTypeRKNSt7__cxx1112basic_stringIcSt11char_traitsIcESaIcEEEiPvb
libapertium3-3.4.so.0:_ZN13TransferInstrC1ERKS_
libapertium3-3.4.so.0:_ZN13TransferInstrC2E17TransferInstrTypeRKNSt7__cxx1112basic_stringIcSt11char_traitsIcESaIcEEEiPvb
libapertium3-3.4.so.0:_ZN13TransferInstrC2ERKS_
libapertium3-3.4.so.0:_ZN13TransferInstrD1Ev
libapertium3-3.4.so.0:_ZN13TransferInstrD2Ev
libapertium3-3.4.so.0:_ZN13TransferInstraSERKS_
libapertium3-3.4.so.0:_ZN13TransferToken10getContentB5cxx11Ev
libapertium3-3.4.so.0:_ZN13TransferToken10setContentERKNSt7__cxx1112basic_stringIwSt11char_traitsIwESaIwEEE
libapertium3-3.4.so.0:_ZN13TransferToken4copyERKS_
libapertium3-3.4.so.0:_ZN13TransferToken7destroyEv
libapertium3-3.4.so.0:_ZN13TransferToken7getTypeEv
libapertium3-3.4.so.0:_ZN13TransferToken7setTypeE17TransferTokenType
libapertium3-3.4.so.0:_ZN13TransferTokenC1ERKNSt7__cxx1112basic_stringIwSt11char_traitsIwESaIwEEE17TransferTokenType
libapertium3-3.4.so.0:_ZN13TransferTokenC1ERKS_
libapertium3-3.4.so.0:_ZN13TransferTokenC1Ev
libapertium3-3.4.so.0:_ZN13TransferTokenC2ERKNSt7__cxx1112basic_stringIwSt11char_traitsIwESaIwEEE17TransferTokenType
libapertium3-3.4.so.0:_ZN13TransferTokenC2ERKS_
libapertium3-3.4.so.0:_ZN13TransferTokenC2Ev
libapertium3-3.4.so.0:_ZN13TransferTokenD1Ev
libapertium3-3.4.so.0:_ZN13TransferTokenD2Ev
libapertium3-3.4.so.0:_ZN13TransferTokenaSERKS_
libapertium3-3.4.so.0:_ZN14InterchunkWord12setChunkPartERK10ApertiumRERKNSt7__cxx1112basic_stringIcSt11char_traitsIcESaIcEEE
libapertium3-3.4.so.0:_ZN14InterchunkWord4copyERKS_
libapertium3-3.4.so.0:_ZN14InterchunkWord4initERKNSt7__cxx1112basic_stringIcSt11char_traitsIcESaIcEEE
libapertium3-3.4.so.0:_ZN14InterchunkWord7destroyEv
libapertium3-3.4.so.0:_ZN14InterchunkWord9chunkPartB5cxx11ERK10ApertiumRE
libapertium3-3.4.so.0:_ZN14InterchunkWordC1ERKNSt7__cxx1112basic_stringIcSt11char_traitsIcESaIcEEE
libapertium3-3.4.so.0:_ZN14InterchunkWordC1ERKS_
libapertium3-3.4.so.0:_ZN14InterchunkWordC1Ev
libapertium3-3.4.so.0:_ZN14InterchunkWordC2ERKNSt7__cxx1112basic_stringIcSt11char_traitsIcESaIcEEE
libapertium3-3.4.so.0:_ZN14InterchunkWordC2ERKS_
libapertium3-3.4.so.0:_ZN14InterchunkWordC2Ev
libapertium3-3.4.so.0:_ZN14InterchunkWordD1Ev
libapertium3-3.4.so.0:_ZN14InterchunkWordD2Ev
libapertium3-3.4.so.0:_ZN14InterchunkWordaSERKS_
libapertium3-3.4.so.0:_ZN15ConstantManager11getConstantERKNSt7__cxx1112basic_stringIwSt11char_traitsIwESaIwEEE
libapertium3-3.4.so.0:_ZN15ConstantManager11setConstantERKNSt7__cxx1112basic_stringIwSt11char_traitsIwESaIwEEEi
libapertium3-3.4.so.0:_ZN15ConstantManager4copyERKS_
libapertium3-3.4.so.0:_ZN15ConstantManager4readEP8_IO_FILE
libapertium3-3.4.so.0:_ZN15ConstantManager5writeEP8_IO_FILE
libapertium3-3.4.so.0:_ZN15ConstantManager7destroyEv
libapertium3-3.4.so.0:_ZN15ConstantManagerC1ERKS_
libapertium3-3.4.so.0:_ZN15ConstantManagerC1Ev
libapertium3-3.4.so.0:_ZN15ConstantManagerC2ERKS_
libapertium3-3.4.so.0:_ZN15ConstantManagerC2Ev
libapertium3-3.4.so.0:_ZN15ConstantManagerD1Ev
libapertium3-3.4.so.0:_ZN15ConstantManagerD2Ev
libapertium3-3.4.so.0:_ZN15ConstantManageraSERKS_
libapertium3-3.4.so.0:_ZN16EndianDoubleUtil4readEP8_IO_FILE
libapertium3-3.4.so.0:_ZN16EndianDoubleUtil4readERSi
libapertium3-3.4.so.0:_ZN16EndianDoubleUtil5writeEP8_IO_FILERKd
libapertium3-3.4.so.0:_ZN16EndianDoubleUtil5writeERSoRKd
libapertium3-3.4.so.0:_ZN16TransferWordList4copyERKS_
libapertium3-3.4.so.0:_ZN16TransferWordList6searchERKNSt7__cxx1112basic_stringIcSt11char_traitsIcESaIcEEEb
libapertium3-3.4.so.0:_ZN16TransferWordList7addWordERKNSt7__cxx1112basic_stringIcSt11char_traitsIcESaIcEEE
libapertium3-3.4.so.0:_ZN16TransferWordList7destroyEv
libapertium3-3.4.so.0:_ZN16TransferWordListC1ERKS_
libapertium3-3.4.so.0:_ZN16TransferWordListC1Ev
libapertium3-3.4.so.0:_ZN16TransferWordListC2ERKS_
libapertium3-3.4.so.0:_ZN16TransferWordListC2Ev
libapertium3-3.4.so.0:_ZN16TransferWordListD1Ev
libapertium3-3.4.so.0:_ZN16TransferWordListD2Ev
libapertium3-3.4.so.0:_ZN16TransferWordListaSERKS_
libapertium3-3.4.so.0:_ZN3HMM11apply_rulesEv
libapertium3-3.4.so.0:_ZN3HMM11deserialiseEP8_IO_FILE
libapertium3-3.4.so.0:_ZN3HMM11deserialiseERK10TaggerData
libapertium3-3.4.so.0:_ZN3HMM12getArrayTagsB5cxx11Ev
libapertium3-3.4.so.0:_ZN3HMM15read_dictionaryEP8_IO_FILE
libapertium3-3.4.so.0:_ZN3HMM18read_probabilitiesEP8_IO_FILE
libapertium3-3.4.so.0:_ZN3HMM19write_probabilitiesEP8_IO_FILE
libapertium3-3.4.so.0:_ZN3HMM22read_ambiguity_classesEP8_IO_FILE
libapertium3-3.4.so.0:_ZN3HMM23print_ambiguity_classesEv
libapertium3-3.4.so.0:_ZN3HMM23write_ambiguity_classesEP8_IO_FILE
libapertium3-3.4.so.0:_ZN3HMM24filter_ambiguity_classesEP8_IO_FILES1_
libapertium3-3.4.so.0:_ZN3HMM25init_probabilities_kupiecEP8_IO_FILE
libapertium3-3.4.so.0:_ZN3HMM26init_probabilities_kupiec_EP8_IO_FILE
libapertium3-3.4.so.0:_ZN3HMM35init_probabilities_from_tagged_textEP8_IO_FILES1_
libapertium3-3.4.so.0:_ZN3HMM36init_probabilities_from_tagged_text_EP8_IO_FILES1_
libapertium3-3.4.so.0:_ZN3HMM4initEv
libapertium3-3.4.so.0:_ZN3HMM5trainEP8_IO_FILE
libapertium3-3.4.so.0:_ZN3HMM5trainEP8_IO_FILEm
libapertium3-3.4.so.0:_ZN3HMM6taggerEP8_IO_FILES1_RKb
libapertium3-3.4.so.0:_ZN3HMM7print_AEv
libapertium3-3.4.so.0:_ZN3HMM7print_BEv
libapertium3-3.4.so.0:_ZN3HMM7set_eosEi
libapertium3-3.4.so.0:_ZN3HMM9serialiseEP8_IO_FILE
libapertium3-3.4.so.0:_ZN3HMMC1E13TaggerDataHMM
libapertium3-3.4.so.0:_ZN3HMMC1EP13TaggerDataHMM
libapertium3-3.4.so.0:_ZN3HMMC1Ev
libapertium3-3.4.so.0:_ZN3HMMC2E13TaggerDataHMM
libapertium3-3.4.so.0:_ZN3HMMC2EP13TaggerDataHMM
libapertium3-3.4.so.0:_ZN3HMMC2Ev
libapertium3-3.4.so.0:_ZN3HMMD0Ev
libapertium3-3.4.so.0:_ZN3HMMD1Ev
libapertium3-3.4.so.0:_ZN3HMMD2Ev
libapertium3-3.4.so.0:_ZN7LSWPoST11deserialiseEP8_IO_FILE
libapertium3-3.4.so.0:_ZN7LSWPoST11deserialiseERK10TaggerData
libapertium3-3.4.so.0:_ZN7LSWPoST12getArrayTagsB5cxx11Ev
libapertium3-3.4.so.0:_ZN7LSWPoST12is_valid_seqEiii
libapertium3-3.4.so.0:_ZN7LSWPoST15read_dictionaryEP8_IO_FILE
libapertium3-3.4.so.0:_ZN7LSWPoST17print_para_matrixEv
libapertium3-3.4.so.0:_ZN7LSWPoST18init_probabilitiesEP8_IO_FILE
libapertium3-3.4.so.0:_ZN7LSWPoST26init_probabilities_kupiec_EP8_IO_FILE
libapertium3-3.4.so.0:_ZN7LSWPoST36init_probabilities_from_tagged_text_EP8_IO_FILES1_
libapertium3-3.4.so.0:_ZN7LSWPoST5trainEP8_IO_FILE
libapertium3-3.4.so.0:_ZN7LSWPoST5trainEP8_IO_FILEm
libapertium3-3.4.so.0:_ZN7LSWPoST6taggerEP8_IO_FILES1_RKb
libapertium3-3.4.so.0:_ZN7LSWPoST7set_eosEi
libapertium3-3.4.so.0:_ZN7LSWPoST9serialiseEP8_IO_FILE
libapertium3-3.4.so.0:_ZN7LSWPoSTC1E13TaggerDataLSW
libapertium3-3.4.so.0:_ZN7LSWPoSTC1EP13TaggerDataLSW
libapertium3-3.4.so.0:_ZN7LSWPoSTC1Ev
libapertium3-3.4.so.0:_ZN7LSWPoSTC2E13TaggerDataLSW
libapertium3-3.4.so.0:_ZN7LSWPoSTC2EP13TaggerDataLSW
libapertium3-3.4.so.0:_ZN7LSWPoSTC2Ev
libapertium3-3.4.so.0:_ZN7LSWPoSTD0Ev
libapertium3-3.4.so.0:_ZN7LSWPoSTD1Ev
libapertium3-3.4.so.0:_ZN7LSWPoSTD2Ev
libapertium3-3.4.so.0:_ZN8Apertium11FILE_Tagger11deserialiseEPc
libapertium3-3.4.so.0:_ZN8Apertium11FILE_Tagger11set_show_sfERKb
libapertium3-3.4.so.0:_ZN8Apertium11FILE_Tagger12setNullFlushERKb
libapertium3-3.4.so.0:_ZN8Apertium11FILE_Tagger9set_debugERKb
libapertium3-3.4.so.0:_ZN8Apertium11FILE_TaggerC1Ev
libapertium3-3.4.so.0:_ZN8Apertium11FILE_TaggerC2Ev
libapertium3-3.4.so.0:_ZN8Apertium11FILE_TaggerD0Ev
libapertium3-3.4.so.0:_ZN8Apertium11FILE_TaggerD1Ev
libapertium3-3.4.so.0:_ZN8Apertium11FILE_TaggerD2Ev
libapertium3-3.4.so.0:_ZN8Apertium12basic_Tagger5Flags12setNullFlushERKb
libapertium3-3.4.so.0:_ZN8Apertium12basic_Tagger5Flags18setShowSuperficialERKb
libapertium3-3.4.so.0:_ZN8Apertium12basic_Tagger5Flags7setMarkERKb
libapertium3-3.4.so.0:_ZN8Apertium12basic_Tagger5Flags8setDebugERKb
libapertium3-3.4.so.0:_ZN8Apertium12basic_Tagger5Flags8setFirstERKb
libapertium3-3.4.so.0:_ZN8Apertium12basic_Tagger5FlagsC1Ev
libapertium3-3.4.so.0:_ZN8Apertium12basic_Tagger5FlagsC2Ev
libapertium3-3.4.so.0:_ZN8Apertium12basic_TaggerC1ERKNS0_5FlagsE
libapertium3-3.4.so.0:_ZN8Apertium12basic_TaggerC2ERKNS0_5FlagsE
libapertium3-3.4.so.0:_ZN8Apertium13ExceptionTypeC1EPKc
libapertium3-3.4.so.0:_ZN8Apertium13ExceptionTypeC1ERKNSt7__cxx1112basic_stringIcSt11char_traitsIcESaIcEEE
libapertium3-3.4.so.0:_ZN8Apertium13ExceptionTypeC1ERKNSt7__cxx1118basic_stringstreamIcSt11char_traitsIcESaIcEEE
libapertium3-3.4.so.0:_ZN8Apertium13ExceptionTypeC2EPKc
libapertium3-3.4.so.0:_ZN8Apertium13ExceptionTypeC2ERKNSt7__cxx1112basic_stringIcSt11char_traitsIcESaIcEEE
libapertium3-3.4.so.0:_ZN8Apertium13ExceptionTypeC2ERKNSt7__cxx1118basic_stringstreamIcSt11char_traitsIcESaIcEEE
libapertium3-3.4.so.0:_ZN8Apertium13ExceptionTypeD0Ev
libapertium3-3.4.so.0:_ZN8Apertium13ExceptionTypeD1Ev
libapertium3-3.4.so.0:_ZN8Apertium13ExceptionTypeD2Ev
libapertium3-3.4.so.0:_ZN8Apertium18basic_5_3_1_TaggerC1Ev
libapertium3-3.4.so.0:_ZN8Apertium18basic_5_3_1_TaggerC2Ev
libapertium3-3.4.so.0:_ZN8Apertium18basic_5_3_2_TaggerC1Ev
libapertium3-3.4.so.0:_ZN8Apertium18basic_5_3_2_TaggerC2Ev
libapertium3-3.4.so.0:_ZN8Apertium18basic_StreamTaggerC1ERKNS_12basic_Tagger5FlagsE
libapertium3-3.4.so.0:_ZN8Apertium18basic_StreamTaggerC2ERKNS_12basic_Tagger5FlagsE
libapertium3-3.4.so.0:_ZN8Apertium18basic_StreamTaggerD0Ev
libapertium3-3.4.so.0:_ZN8Apertium18basic_StreamTaggerD1Ev
libapertium3-3.4.so.0:_ZN8Apertium18basic_StreamTaggerD2Ev
libapertium3-3.4.so.0:_ZN8Apertium19Stream_5_3_1_Tagger11deserialiseERSi
libapertium3-3.4.so.0:_ZN8Apertium19Stream_5_3_1_TaggerC1ERKNS_12basic_Tagger5FlagsE
libapertium3-3.4.so.0:_ZN8Apertium19Stream_5_3_1_TaggerC2ERKNS_12basic_Tagger5FlagsE
libapertium3-3.4.so.0:_ZN8Apertium19Stream_5_3_2_Tagger11deserialiseERSi
libapertium3-3.4.so.0:_ZN8Apertium19Stream_5_3_2_TaggerC1ERKNS_12basic_Tagger5FlagsE
libapertium3-3.4.so.0:_ZN8Apertium19Stream_5_3_2_TaggerC2ERKNS_12basic_Tagger5FlagsE
libapertium3-3.4.so.0:_ZN8Apertium19Stream_5_3_3_Tagger11deserialiseERSi
libapertium3-3.4.so.0:_ZN8Apertium19Stream_5_3_3_TaggerC1ERKNS_12basic_Tagger5FlagsE
libapertium3-3.4.so.0:_ZN8Apertium19Stream_5_3_3_TaggerC2ERKNS_12basic_Tagger5FlagsE
libapertium3-3.4.so.0:_ZN8Apertium19basic_ExceptionTypeD0Ev
libapertium3-3.4.so.0:_ZN8Apertium19basic_ExceptionTypeD1Ev
libapertium3-3.4.so.0:_ZN8Apertium19basic_ExceptionTypeD2Ev
libapertium3-3.4.so.0:_ZN8Apertium1aC1ERKNS_8AnalysisE
libapertium3-3.4.so.0:_ZN8Apertium1aC1Ev
libapertium3-3.4.so.0:_ZN8Apertium1aC2ERKNS_8AnalysisE
libapertium3-3.4.so.0:_ZN8Apertium1aC2Ev
libapertium3-3.4.so.0:_ZN8Apertium1iC1ERKNS_8AnalysisE
libapertium3-3.4.so.0:_ZN8Apertium1iC1ERKNS_8MorphemeE
libapertium3-3.4.so.0:_ZN8Apertium1iC1Ev
libapertium3-3.4.so.0:_ZN8Apertium1iC2ERKNS_8AnalysisE
libapertium3-3.4.so.0:_ZN8Apertium1iC2ERKNS_8MorphemeE
libapertium3-3.4.so.0:_ZN8Apertium1iC2Ev
libapertium3-3.4.so.0:_ZN8Apertium21wchar_t_ExceptionType11constructorEPKw
libapertium3-3.4.so.0:_ZN8Apertium21wchar_t_ExceptionType4sizeEPKw
libapertium3-3.4.so.0:_ZN8Apertium21wchar_t_ExceptionTypeC1EPKw
libapertium3-3.4.so.0:_ZN8Apertium21wchar_t_ExceptionTypeC1ERKNSt7__cxx1112basic_stringIwSt11char_traitsIwESaIwEEE
libapertium3-3.4.so.0:_ZN8Apertium21wchar_t_ExceptionTypeC1ERKNSt7__cxx1118basic_stringstreamIwSt11char_traitsIwESaIwEEE
libapertium3-3.4.so.0:_ZN8Apertium21wchar_t_ExceptionTypeC1ERKS0_
libapertium3-3.4.so.0:_ZN8Apertium21wchar_t_ExceptionTypeC2EPKw
libapertium3-3.4.so.0:_ZN8Apertium21wchar_t_ExceptionTypeC2ERKNSt7__cxx1112basic_stringIwSt11char_traitsIwESaIwEEE
libapertium3-3.4.so.0:_ZN8Apertium21wchar_t_ExceptionTypeC2ERKNSt7__cxx1118basic_stringstreamIwSt11char_traitsIwESaIwEEE
libapertium3-3.4.so.0:_ZN8Apertium21wchar_t_ExceptionTypeC2ERKS0_
libapertium3-3.4.so.0:_ZN8Apertium21wchar_t_ExceptionTypeD0Ev
libapertium3-3.4.so.0:_ZN8Apertium21wchar_t_ExceptionTypeD1Ev
libapertium3-3.4.so.0:_ZN8Apertium21wchar_t_ExceptionTypeD2Ev
libapertium3-3.4.so.0:_ZN8Apertium21wchar_t_ExceptionTypeaSES0_
libapertium3-3.4.so.0:_ZN8Apertium25basic_StreamTaggerTrainer5trainERNS_6StreamE
libapertium3-3.4.so.0:_ZN8Apertium25basic_StreamTaggerTrainerC1ERKNS_12basic_Tagger5FlagsE
libapertium3-3.4.so.0:_ZN8Apertium25basic_StreamTaggerTrainerC2ERKNS_12basic_Tagger5FlagsE
libapertium3-3.4.so.0:_ZN8Apertium25basic_StreamTaggerTrainerD0Ev
libapertium3-3.4.so.0:_ZN8Apertium25basic_StreamTaggerTrainerD1Ev
libapertium3-3.4.so.0:_ZN8Apertium25basic_StreamTaggerTrainerD2Ev
libapertium3-3.4.so.0:_ZN8Apertium26Stream_5_3_1_TaggerTrainer13multiplyModelERKm
libapertium3-3.4.so.0:_ZN8Apertium26Stream_5_3_1_TaggerTrainer14train_AnalysisERKNS_8AnalysisERKm
libapertium3-3.4.so.0:_ZN8Apertium26Stream_5_3_1_TaggerTrainerC1ERKNS_12basic_Tagger5FlagsE
libapertium3-3.4.so.0:_ZN8Apertium26Stream_5_3_1_TaggerTrainerC2ERKNS_12basic_Tagger5FlagsE
libapertium3-3.4.so.0:_ZN8Apertium26Stream_5_3_2_TaggerTrainer13multiplyModelERKm
libapertium3-3.4.so.0:_ZN8Apertium26Stream_5_3_2_TaggerTrainer14train_AnalysisERKNS_8AnalysisERKm
libapertium3-3.4.so.0:_ZN8Apertium26Stream_5_3_2_TaggerTrainerC1ERKNS_12basic_Tagger5FlagsE
libapertium3-3.4.so.0:_ZN8Apertium26Stream_5_3_2_TaggerTrainerC2ERKNS_12basic_Tagger5FlagsE
libapertium3-3.4.so.0:_ZN8Apertium26Stream_5_3_3_TaggerTrainer13multiplyModelERKm
libapertium3-3.4.so.0:_ZN8Apertium26Stream_5_3_3_TaggerTrainer14train_AnalysisERKNS_8AnalysisERKm
libapertium3-3.4.so.0:_ZN8Apertium26Stream_5_3_3_TaggerTrainerC1ERKNS_12basic_Tagger5FlagsE
libapertium3-3.4.so.0:_ZN8Apertium26Stream_5_3_3_TaggerTrainerC2ERKNS_12basic_Tagger5FlagsE
libapertium3-3.4.so.0:_ZN8Apertium4swapERNS_21wchar_t_ExceptionTypeES1_
libapertium3-3.4.so.0:_ZN8Apertium5LemmaC1ERKNS_8AnalysisE
libapertium3-3.4.so.0:_ZN8Apertium5LemmaC1ERKNS_8MorphemeE
libapertium3-3.4.so.0:_ZN8Apertium5LemmaC1Ev
libapertium3-3.4.so.0:_ZN8Apertium5LemmaC2ERKNS_8AnalysisE
libapertium3-3.4.so.0:_ZN8Apertium5LemmaC2ERKNS_8MorphemeE
libapertium3-3.4.so.0:_ZN8Apertium5LemmaC2Ev
libapertium3-3.4.so.0:_ZN8Apertium5align3colERKSt6vectorISt4pairINSt7__cxx1112basic_stringIcSt11char_traitsIcESaIcEEES8_ESaIS9_EE
libapertium3-3.4.so.0:_ZN8Apertium5align6align_ERKSt6vectorISt4pairINSt7__cxx1112basic_stringIcSt11char_traitsIcESaIcEEES8_ESaIS9_EE
libapertium3-3.4.so.0:_ZN8Apertium6Stream16PreviousCaseTypeC1ERKw
libapertium3-3.4.so.0:_ZN8Apertium6Stream16PreviousCaseTypeC2ERKw
libapertium3-3.4.so.0:_ZN8Apertium6Stream19push_back_CharacterERNS_12StreamedTypeERNSt7__cxx1112basic_stringIwSt11char_traitsIwESaIwEEERKw
libapertium3-3.4.so.0:_ZN8Apertium6Stream24isTheCharacterStream_eofERNS_12StreamedTypeERNSt7__cxx1112basic_stringIwSt11char_traitsIwESaIwEEERKw
libapertium3-3.4.so.0:_ZN8Apertium6Stream3getEv
libapertium3-3.4.so.0:_ZN8Apertium6Stream43is_eof_throw_if_not_TheCharacterStream_goodERNS_12StreamedTypeERNSt7__cxx1112basic_stringIwSt11char_traitsIwESaIwEEERKw
libapertium3-3.4.so.0:_ZN8Apertium6Stream9case_0x5cERNS_12StreamedTypeERNSt7__cxx1112basic_stringIwSt11char_traitsIwESaIwEEERKw
libapertium3-3.4.so.0:_ZN8Apertium6StreamC1ERKNS_12basic_Tagger5FlagsE
libapertium3-3.4.so.0:_ZN8Apertium6StreamC1ERKNS_12basic_Tagger5FlagsERSt14basic_ifstreamIwSt11char_traitsIwEEPKc
libapertium3-3.4.so.0:_ZN8Apertium6StreamC1ERKNS_12basic_Tagger5FlagsERSt14basic_ifstreamIwSt11char_traitsIwEERKNSt7__cxx1112basic_stringIcS6_IcESaIcEEE
libapertium3-3.4.so.0:_ZN8Apertium6StreamC1ERKNS_12basic_Tagger5FlagsERSt14basic_ifstreamIwSt11char_traitsIwEERKNSt7__cxx1118basic_stringstreamIcS6_IcESaIcEEE
libapertium3-3.4.so.0:_ZN8Apertium6StreamC2ERKNS_12basic_Tagger5FlagsE
libapertium3-3.4.so.0:_ZN8Apertium6StreamC2ERKNS_12basic_Tagger5FlagsERSt14basic_ifstreamIwSt11char_traitsIwEEPKc
libapertium3-3.4.so.0:_ZN8Apertium6StreamC2ERKNS_12basic_Tagger5FlagsERSt14basic_ifstreamIwSt11char_traitsIwEERKNSt7__cxx1112basic_stringIcS6_IcESaIcEEE
libapertium3-3.4.so.0:_ZN8Apertium6StreamC2ERKNS_12basic_Tagger5FlagsERSt14basic_ifstreamIwSt11char_traitsIwEERKNSt7__cxx1118basic_stringstreamIcS6_IcESaIcEEE
libapertium3-3.4.so.0:_ZN8Apertium9linebreak10linebreak_ENSt7__cxx1112basic_stringIcSt11char_traitsIcESaIcEEEmRKm
libapertium3-3.4.so.0:_ZN8Apertium9linebreak10linebreak_ERNSt7__cxx1112basic_stringIcSt11char_traitsIcESaIcEEERmRKmS8_SA_
libapertium3-3.4.so.0:_ZN8ApertiumeqEPKcRKNSt7__cxx1112basic_stringIcSt11char_traitsIcESaIcEEE
libapertium3-3.4.so.0:_ZN8ApertiumeqERKNS_1aES2_
libapertium3-3.4.so.0:_ZN8ApertiumeqERKNS_1iES2_
libapertium3-3.4.so.0:_ZN8ApertiumeqERKNS_3TagES2_
libapertium3-3.4.so.0:_ZN8ApertiumeqERKNS_5LemmaES2_
libapertium3-3.4.so.0:_ZN8ApertiumeqERKNS_8AnalysisES2_
libapertium3-3.4.so.0:_ZN8ApertiumeqERKNS_8MorphemeES2_
libapertium3-3.4.so.0:_ZN8ApertiumeqERKNSt7__cxx1112basic_stringIcSt11char_traitsIcESaIcEEEPKc
libapertium3-3.4.so.0:_ZN8ApertiumeqERKNSt7__cxx1112basic_stringIcSt11char_traitsIcESaIcEEES7_
libapertium3-3.4.so.0:_ZN8ApertiumlsERSt13basic_ostreamIwSt11char_traitsIwEERKNS_8AnalysisE
libapertium3-3.4.so.0:_ZN8ApertiumltERKNS_1aES2_
libapertium3-3.4.so.0:_ZN8ApertiumltERKNS_1iES2_
libapertium3-3.4.so.0:_ZN8ApertiumltERKNS_3TagES2_
libapertium3-3.4.so.0:_ZN8ApertiumltERKNS_5LemmaES2_
libapertium3-3.4.so.0:_ZN8ApertiumltERKNS_8AnalysisES2_
libapertium3-3.4.so.0:_ZN8ApertiumltERKNS_8MorphemeES2_
libapertium3-3.4.so.0:_ZN8ApertiumneEPKcRKNSt7__cxx1112basic_stringIcSt11char_traitsIcESaIcEEE
libapertium3-3.4.so.0:_ZN8ApertiumneERKNSt7__cxx1112basic_stringIcSt11char_traitsIcESaIcEEEPKc
libapertium3-3.4.so.0:_ZN8ApertiumneERKNSt7__cxx1112basic_stringIcSt11char_traitsIcESaIcEEES7_
libapertium3-3.4.so.0:_ZN8Transfer10checkIndexEP8_xmlNodeii
libapertium3-3.4.so.0:_ZN8Transfer10evalStringB5cxx11EP8_xmlNode
libapertium3-3.4.so.0:_ZN8Transfer10processAndEP8_xmlNode
libapertium3-3.4.so.0:_ZN8Transfer10processLetEP8_xmlNode
libapertium3-3.4.so.0:_ZN8Transfer10processNotEP8_xmlNode
libapertium3-3.4.so.0:_ZN8Transfer10processOutEP8_xmlNode
libapertium3-3.4.so.0:_ZN8Transfer11processRuleEP8_xmlNode
libapertium3-3.4.so.0:_ZN8Transfer11processTagsB5cxx11EP8_xmlNode
libapertium3-3.4.so.0:_ZN8Transfer11processTestEP8_xmlNode
libapertium3-3.4.so.0:_ZN8Transfer11setTraceATTEb
libapertium3-3.4.so.0:_ZN8Transfer12collectRulesEP8_xmlNode
libapertium3-3.4.so.0:_ZN8Transfer12getNullFlushEv
libapertium3-3.4.so.0:_ZN8Transfer12processChunkB5cxx11EP8_xmlNode
libapertium3-3.4.so.0:_ZN8Transfer12processEqualEP8_xmlNode
libapertium3-3.4.so.0:_ZN8Transfer12readTransferERKNSt7__cxx1112basic_stringIcSt11char_traitsIcESaIcEEE
libapertium3-3.4.so.0:_ZN8Transfer12setNullFlushEb
libapertium3-3.4.so.0:_ZN8Transfer13collectMacrosEP8_xmlNode
libapertium3-3.4.so.0:_ZN8Transfer13processAppendEP8_xmlNode
libapertium3-3.4.so.0:_ZN8Transfer13processChooseEP8_xmlNode
libapertium3-3.4.so.0:_ZN8Transfer14processLogicalEP8_xmlNode
libapertium3-3.4.so.0:_ZN8Transfer15processEndsWithEP8_xmlNode
libapertium3-3.4.so.0:_ZN8Transfer15setPreBilingualEb
libapertium3-3.4.so.0:_ZN8Transfer15setUseBilingualEb
libapertium3-3.4.so.0:_ZN8Transfer16processCallMacroEP8_xmlNode
libapertium3-3.4.so.0:_ZN8Transfer17processBeginsWithEP8_xmlNode
libapertium3-3.4.so.0:_ZN8Transfer17processModifyCaseEP8_xmlNode
libapertium3-3.4.so.0:_ZN8Transfer18processInstructionEP8_xmlNode
libapertium3-3.4.so.0:_ZN8Transfer19processEndsWithListEP8_xmlNode
libapertium3-3.4.so.0:_ZN8Transfer20setCaseSensitivenessEb
libapertium3-3.4.so.0:_ZN8Transfer21processBeginsWithListEP8_xmlNode
libapertium3-3.4.so.0:_ZN8Transfer21setExtendedDictionaryERKNSt7__cxx1112basic_stringIcSt11char_traitsIcESaIcEEE
libapertium3-3.4.so.0:_ZN8Transfer24processContainsSubstringEP8_xmlNode
libapertium3-3.4.so.0:_ZN8Transfer24processRejectCurrentRuleEP8_xmlNode
libapertium3-3.4.so.0:_ZN8Transfer27transfer_wrapper_null_flushEP8_IO_FILES1_
libapertium3-3.4.so.0:_ZN8Transfer4readERKNSt7__cxx1112basic_stringIcSt11char_traitsIcESaIcEEES7_S7_
libapertium3-3.4.so.0:_ZN8Transfer6caseOfERKNSt7__cxx1112basic_stringIcSt11char_traitsIcESaIcEEE
libapertium3-3.4.so.0:_ZN8Transfer7destroyEv
libapertium3-3.4.so.0:_ZN8Transfer7readBilERKNSt7__cxx1112basic_stringIcSt11char_traitsIcESaIcEEE
libapertium3-3.4.so.0:_ZN8Transfer8copycaseERKNSt7__cxx1112basic_stringIcSt11char_traitsIcESaIcEEES7_
libapertium3-3.4.so.0:_ZN8Transfer8readDataEP8_IO_FILE
libapertium3-3.4.so.0:_ZN8Transfer8setTraceEb
libapertium3-3.4.so.0:_ZN8Transfer8transferEP8_IO_FILES1_
libapertium3-3.4.so.0:_ZN8Transfer9applyRuleEv
libapertium3-3.4.so.0:_ZN8Transfer9applyWordERKNSt7__cxx1112basic_stringIwSt11char_traitsIwESaIwEEE
libapertium3-3.4.so.0:_ZN8Transfer9processInEP8_xmlNode
libapertium3-3.4.so.0:_ZN8Transfer9processOrEP8_xmlNode
libapertium3-3.4.so.0:_ZN8Transfer9readTokenEP8_IO_FILE
libapertium3-3.4.so.0:_ZN8TransferC1Ev
libapertium3-3.4.so.0:_ZN8TransferC2Ev
libapertium3-3.4.so.0:_ZN8TransferD1Ev
libapertium3-3.4.so.0:_ZN8TransferD2Ev
libapertium3-3.4.so.0:_ZN9Arguments15getNumericParamERKNSt7__cxx1112basic_stringIcSt11char_traitsIcESaIcEEERi
libapertium3-3.4.so.0:_ZN9Arguments16getSwitchCompactERKNSt7__cxx1112basic_stringIcSt11char_traitsIcESaIcEEE
libapertium3-3.4.so.0:_ZN9Arguments4readEiPPc
libapertium3-3.4.so.0:_ZN9Arguments4readEiPPcRSt6vectorIPKcSaIS4_EE
libapertium3-3.4.so.0:_ZN9Arguments9getSwitchERKNSt7__cxx1112basic_stringIcSt11char_traitsIcESaIcEEERb
libapertium3-3.4.so.0:_ZN9Postchunk10beginChunkERKNSt7__cxx1112basic_stringIwSt11char_traitsIwESaIwEEE
libapertium3-3.4.so.0:_ZN9Postchunk10checkIndexEP8_xmlNodeii
libapertium3-3.4.so.0:_ZN9Postchunk10evalStringB5cxx11EP8_xmlNode
libapertium3-3.4.so.0:_ZN9Postchunk10getVecTagsERKNSt7__cxx1112basic_stringIwSt11char_traitsIwESaIwEEE
libapertium3-3.4.so.0:_ZN9Postchunk10processAndEP8_xmlNode
libapertium3-3.4.so.0:_ZN9Postchunk10processLetEP8_xmlNode
libapertium3-3.4.so.0:_ZN9Postchunk10processNotEP8_xmlNode
libapertium3-3.4.so.0:_ZN9Postchunk10processOutEP8_xmlNode
libapertium3-3.4.so.0:_ZN9Postchunk11processRuleEP8_xmlNode
libapertium3-3.4.so.0:_ZN9Postchunk11processTagsEP8_xmlNode
libapertium3-3.4.so.0:_ZN9Postchunk11processTestEP8_xmlNode
libapertium3-3.4.so.0:_ZN9Postchunk11pseudolemmaERKNSt7__cxx1112basic_stringIwSt11char_traitsIwESaIwEEE
libapertium3-3.4.so.0:_ZN9Postchunk12collectRulesEP8_xmlNode
libapertium3-3.4.so.0:_ZN9Postchunk12getNullFlushEv
libapertium3-3.4.so.0:_ZN9Postchunk12processEqualEP8_xmlNode
libapertium3-3.4.so.0:_ZN9Postchunk12setNullFlushEb
libapertium3-3.4.so.0:_ZN9Postchunk13collectMacrosEP8_xmlNode
libapertium3-3.4.so.0:_ZN9Postchunk13processAppendEP8_xmlNode
libapertium3-3.4.so.0:_ZN9Postchunk13processChooseEP8_xmlNode
libapertium3-3.4.so.0:_ZN9Postchunk13readPostchunkERKNSt7__cxx1112basic_stringIcSt11char_traitsIcESaIcEEE
libapertium3-3.4.so.0:_ZN9Postchunk14processLogicalEP8_xmlNode
libapertium3-3.4.so.0:_ZN9Postchunk15processEndsWithEP8_xmlNode
libapertium3-3.4.so.0:_ZN9Postchunk16processCallMacroEP8_xmlNode
libapertium3-3.4.so.0:_ZN9Postchunk17processBeginsWithEP8_xmlNode
libapertium3-3.4.so.0:_ZN9Postchunk17processModifyCaseEP8_xmlNode
libapertium3-3.4.so.0:_ZN9Postchunk18processInstructionEP8_xmlNode
libapertium3-3.4.so.0:_ZN9Postchunk19processEndsWithListEP8_xmlNode
libapertium3-3.4.so.0:_ZN9Postchunk19splitWordsAndBlanksERKNSt7__cxx1112basic_stringIwSt11char_traitsIwESaIwEEERSt6vectorIPS5_SaIS9_EESC_
libapertium3-3.4.so.0:_ZN9Postchunk21processBeginsWithListEP8_xmlNode
libapertium3-3.4.so.0:_ZN9Postchunk24processContainsSubstringEP8_xmlNode
libapertium3-3.4.so.0:_ZN9Postchunk28postchunk_wrapper_null_flushEP8_IO_FILES1_
libapertium3-3.4.so.0:_ZN9Postchunk4readERKNSt7__cxx1112basic_stringIcSt11char_traitsIcESaIcEEES7_
libapertium3-3.4.so.0:_ZN9Postchunk6caseOfERKNSt7__cxx1112basic_stringIcSt11char_traitsIcESaIcEEE
libapertium3-3.4.so.0:_ZN9Postchunk6caseOfERKNSt7__cxx1112basic_stringIwSt11char_traitsIwESaIwEEE
libapertium3-3.4.so.0:_ZN9Postchunk7destroyEv
libapertium3-3.4.so.0:_ZN9Postchunk7unchunkERKNSt7__cxx1112basic_stringIwSt11char_traitsIwESaIwEEEP8_IO_FILE
libapertium3-3.4.so.0:_ZN9Postchunk8copycaseERKNSt7__cxx1112basic_stringIcSt11char_traitsIcESaIcEEES7_
libapertium3-3.4.so.0:_ZN9Postchunk8endChunkERKNSt7__cxx1112basic_stringIwSt11char_traitsIwESaIwEEE
libapertium3-3.4.so.0:_ZN9Postchunk8readDataEP8_IO_FILE
libapertium3-3.4.so.0:_ZN9Postchunk8wordzeroERKNSt7__cxx1112basic_stringIwSt11char_traitsIwESaIwEEE
libapertium3-3.4.so.0:_ZN9Postchunk9applyRuleEv
libapertium3-3.4.so.0:_ZN9Postchunk9applyWordERKNSt7__cxx1112basic_stringIwSt11char_traitsIwESaIwEEE
libapertium3-3.4.so.0:_ZN9Postchunk9postchunkEP8_IO_FILES1_
libapertium3-3.4.so.0:_ZN9Postchunk9processInEP8_xmlNode
libapertium3-3.4.so.0:_ZN9Postchunk9processOrEP8_xmlNode
libapertium3-3.4.so.0:_ZN9Postchunk9readTokenEP8_IO_FILE
libapertium3-3.4.so.0:_ZN9PostchunkC1Ev
libapertium3-3.4.so.0:_ZN9PostchunkC2Ev
libapertium3-3.4.so.0:_ZN9PostchunkD1Ev
libapertium3-3.4.so.0:_ZN9PostchunkD2Ev
libapertium3-3.4.so.0:_ZN9TRXReader10insertTagsEiRKNSt7__cxx1112basic_stringIwSt11char_traitsIwESaIwEEE
libapertium3-3.4.so.0:_ZN9TRXReader10parseErrorERKNSt7__cxx1112basic_stringIwSt11char_traitsIwESaIwEEE
libapertium3-3.4.so.0:_ZN9TRXReader11createMacroERKNSt7__cxx1112basic_stringIwSt11char_traitsIwESaIwEEEi
libapertium3-3.4.so.0:_ZN9TRXReader11insertLemmaEiRKNSt7__cxx1112basic_stringIwSt11char_traitsIwESaIwEEE
libapertium3-3.4.so.0:_ZN9TRXReader11procDefCatsEv
libapertium3-3.4.so.0:_ZN9TRXReader11procDefVarsEv
libapertium3-3.4.so.0:_ZN9TRXReader12procDefAttrsEv
libapertium3-3.4.so.0:_ZN9TRXReader12procDefListsEv
libapertium3-3.4.so.0:_ZN9TRXReader13insertCatItemERKNSt7__cxx1112basic_stringIwSt11char_traitsIwESaIwEEES7_S7_
libapertium3-3.4.so.0:_ZN9TRXReader13procDefMacrosEv
libapertium3-3.4.so.0:_ZN9TRXReader14insertAttrItemERKNSt7__cxx1112basic_stringIwSt11char_traitsIwESaIwEEES7_
libapertium3-3.4.so.0:_ZN9TRXReader14insertListItemERKNSt7__cxx1112basic_stringIwSt11char_traitsIwESaIwEEES7_
libapertium3-3.4.so.0:_ZN9TRXReader4readERKNSt7__cxx1112basic_stringIcSt11char_traitsIcESaIcEEE
libapertium3-3.4.so.0:_ZN9TRXReader4stepEv
libapertium3-3.4.so.0:_ZN9TRXReader5writeERKNSt7__cxx1112basic_stringIcSt11char_traitsIcESaIcEEE
libapertium3-3.4.so.0:_ZN9TRXReader6attribERKNSt7__cxx1112basic_stringIwSt11char_traitsIwESaIwEEE
libapertium3-3.4.so.0:_ZN9TRXReader7destroyEv
libapertium3-3.4.so.0:_ZN9TRXReader9createVarERKNSt7__cxx1112basic_stringIwSt11char_traitsIwESaIwEEES7_
libapertium3-3.4.so.0:_ZN9TRXReader9procRulesEv
libapertium3-3.4.so.0:_ZN9TRXReaderC1Ev
libapertium3-3.4.so.0:_ZN9TRXReaderC2Ev
libapertium3-3.4.so.0:_ZN9TRXReaderD1Ev
libapertium3-3.4.so.0:_ZN9TRXReaderD2Ev
libapertium3-3.4.so.0:_ZN9TSXReader10parseErrorERKNSt7__cxx1112basic_stringIwSt11char_traitsIwESaIwEEE
libapertium3-3.4.so.0:_ZN9TSXReader10procForbidEv
libapertium3-3.4.so.0:_ZN9TSXReader10procTagsetEv
libapertium3-3.4.so.0:_ZN9TSXReader11newConstantERKNSt7__cxx1112basic_stringIwSt11char_traitsIwESaIwEEE
libapertium3-3.4.so.0:_ZN9TSXReader11newTagIndexERKNSt7__cxx1112basic_stringIwSt11char_traitsIwESaIwEEE
libapertium3-3.4.so.0:_ZN9TSXReader11procDefMultEv
libapertium3-3.4.so.0:_ZN9TSXReader11procEnforceEv
libapertium3-3.4.so.0:_ZN9TSXReader12procDefLabelEv
libapertium3-3.4.so.0:_ZN9TSXReader13clearTagIndexEv
libapertium3-3.4.so.0:_ZN9TSXReader13getTaggerDataEv
libapertium3-3.4.so.0:_ZN9TSXReader15procPreferencesEv
libapertium3-3.4.so.0:_ZN9TSXReader17procLabelSequenceEv
libapertium3-3.4.so.0:_ZN9TSXReader22procDiscardOnAmbiguityEv
libapertium3-3.4.so.0:_ZN9TSXReader4copyERKS_
libapertium3-3.4.so.0:_ZN9TSXReader4readERKNSt7__cxx1112basic_stringIcSt11char_traitsIcESaIcEEE
libapertium3-3.4.so.0:_ZN9TSXReader4stepEv
libapertium3-3.4.so.0:_ZN9TSXReader6attribERKNSt7__cxx1112basic_stringIwSt11char_traitsIwESaIwEEE
libapertium3-3.4.so.0:_ZN9TSXReader7destroyEv
libapertium3-3.4.so.0:_ZN9TSXReader9newDefTagERKNSt7__cxx1112basic_stringIwSt11char_traitsIwESaIwEEE
libapertium3-3.4.so.0:_ZN9TSXReaderC1ERKS_
libapertium3-3.4.so.0:_ZN9TSXReaderC1Ev
libapertium3-3.4.so.0:_ZN9TSXReaderC2ERKS_
libapertium3-3.4.so.0:_ZN9TSXReaderC2Ev
libapertium3-3.4.so.0:_ZN9TSXReaderD1Ev
libapertium3-3.4.so.0:_ZN9TSXReaderD2Ev
libapertium3-3.4.so.0:_ZN9TSXReaderaSERKS_
libapertium3-3.4.so.0:_ZNK10ApertiumRE5matchERKNSt7__cxx1112basic_stringIcSt11char_traitsIcESaIcEEE
libapertium3-3.4.so.0:_ZNK10ApertiumRE5writeEP8_IO_FILE
libapertium3-3.4.so.0:_ZNK10ApertiumRE7replaceERNSt7__cxx1112basic_stringIcSt11char_traitsIcESaIcEEERKS5_
libapertium3-3.4.so.0:_ZNK10Interchunk10beginsWithERKNSt7__cxx1112basic_stringIcSt11char_traitsIcESaIcEEES7_
libapertium3-3.4.so.0:_ZNK10Interchunk4tagsERKNSt7__cxx1112basic_stringIcSt11char_traitsIcESaIcEEE
libapertium3-3.4.so.0:_ZNK10Interchunk7tolowerERKNSt7__cxx1112basic_stringIcSt11char_traitsIcESaIcEEE
libapertium3-3.4.so.0:_ZNK10Interchunk8endsWithERKNSt7__cxx1112basic_stringIcSt11char_traitsIcESaIcEEES7_
libapertium3-3.4.so.0:_ZNK10TMXAligner10Dictionary10lookupWordERKNSt7__cxx1112basic_stringIcSt11char_traitsIcESaIcEEERNS_15DictionaryItemsE
libapertium3-3.4.so.0:_ZNK10TMXAligner10Dictionary13lookupWordSetERKSt6vectorINSt7__cxx1112basic_stringIcSt11char_traitsIcESaIcEEESaIS7_EERNS_15DictionaryItemsE
libapertium3-3.4.so.0:_ZNK10TMXAligner11IBMModelOne6lookupERKNSt7__cxx1112basic_stringIcSt11char_traitsIcESaIcEEES8_
libapertium3-3.4.so.0:_ZNK10TMXAligner11IBMModelOne8distanceERKSt6vectorINSt7__cxx1112basic_stringIcSt11char_traitsIcESaIcEEESaIS7_EESB_
libapertium3-3.4.so.0:_ZNK10TMXAligner11TrailScoresclEi
libapertium3-3.4.so.0:_ZNK10TMXAligner12FrequencyMap10reverseMapERSt8multimapIiNSt7__cxx1112basic_stringIcSt11char_traitsIcESaIcEEESt4lessIiESaISt4pairIKiS7_EEE
libapertium3-3.4.so.0:_ZNK10TMXAligner12FrequencyMap13lowPassFilterERSt6vectorINSt7__cxx1112basic_stringIcSt11char_traitsIcESaIcEEESaIS7_EEd
libapertium3-3.4.so.0:_ZNK10TMXAligner12FrequencyMap14highPassFilterERSt6vectorINSt7__cxx1112basic_stringIcSt11char_traitsIcESaIcEEESaIS7_EEd
libapertium3-3.4.so.0:_ZNK10TMXAligner12FrequencyMap4dumpERSoi
libapertium3-3.4.so.0:_ZNK10TMXAligner12FrequencyMap5totalEv
libapertium3-3.4.so.0:_ZNK10TMXAligner12SentenceList10writeNoIdsERSo
libapertium3-3.4.so.0:_ZNK10TMXAligner12SentenceList5writeERSo
libapertium3-3.4.so.0:_ZNK10TMXAligner19TrailScoresInterval14scoreSegmentumERKSt4pairIiiES4_
libapertium3-3.4.so.0:_ZNK10TMXAligner19TrailScoresIntervalclEi
libapertium3-3.4.so.0:_ZNK10TMXAligner19TrailScoresIntervalclEii
libapertium3-3.4.so.0:_ZNK10TMXAligner20BisentenceListScoresclEi
libapertium3-3.4.so.0:_ZNK10TMXAligner8TransLex14lookupLeftWordERKNSt7__cxx1112basic_stringIcSt11char_traitsIcESaIcEEE
libapertium3-3.4.so.0:_ZNK10TMXAligner8TransLex15lookupRightWordERKNSt7__cxx1112basic_stringIcSt11char_traitsIcESaIcEEE
libapertium3-3.4.so.0:_ZNK10TMXAligner8TransLex9isPresentERKNSt7__cxx1112basic_stringIcSt11char_traitsIcESaIcEEES8_
libapertium3-3.4.so.0:_ZNK10TMXBuilder7printTUEP8_IO_FILERKNSt7__cxx1112basic_stringIwSt11char_traitsIwESaIwEEES9_
libapertium3-3.4.so.0:_ZNK10TaggerWord11isAmbiguousEv
libapertium3-3.4.so.0:_ZNK12TransferMult7tolowerERKNSt7__cxx1112basic_stringIcSt11char_traitsIcESaIcEEE
libapertium3-3.4.so.0:_ZNK8Apertium12basic_Tagger5Flags12getNullFlushEv
libapertium3-3.4.so.0:_ZNK8Apertium12basic_Tagger5Flags18getShowSuperficialEv
libapertium3-3.4.so.0:_ZNK8Apertium12basic_Tagger5Flags7getMarkEv
libapertium3-3.4.so.0:_ZNK8Apertium12basic_Tagger5Flags8getDebugEv
libapertium3-3.4.so.0:_ZNK8Apertium12basic_Tagger5Flags8getFirstEv
libapertium3-3.4.so.0:_ZNK8Apertium13ExceptionType4whatEv
libapertium3-3.4.so.0:_ZNK8Apertium18basic_StreamTagger3tagERKNS_11LexicalUnitERSt13basic_ostreamIwSt11char_traitsIwEE
libapertium3-3.4.so.0:_ZNK8Apertium18basic_StreamTagger3tagERNS_6StreamERSt13basic_ostreamIwSt11char_traitsIwEE
libapertium3-3.4.so.0:_ZNK8Apertium19Stream_5_3_1_Tagger12tokenCount_TERKNS_8AnalysisE
libapertium3-3.4.so.0:_ZNK8Apertium19Stream_5_3_1_Tagger5scoreERKNS_8AnalysisE
libapertium3-3.4.so.0:_ZNK8Apertium19Stream_5_3_2_Tagger11typeCount_aERKNS_8AnalysisE
libapertium3-3.4.so.0:_ZNK8Apertium19Stream_5_3_2_Tagger12tokenCount_aERKNS_8AnalysisE
libapertium3-3.4.so.0:_ZNK8Apertium19Stream_5_3_2_Tagger14tokenCount_r_aERKNS_8AnalysisE
libapertium3-3.4.so.0:_ZNK8Apertium19Stream_5_3_2_Tagger5scoreERKNS_8AnalysisE
libapertium3-3.4.so.0:_ZNK8Apertium19Stream_5_3_3_Tagger11typeCount_iERKNS_8AnalysisE
libapertium3-3.4.so.0:_ZNK8Apertium19Stream_5_3_3_Tagger12tokenCount_iERKNS_8AnalysisE
libapertium3-3.4.so.0:_ZNK8Apertium19Stream_5_3_3_Tagger14tokenCount_r_iERKNS_8AnalysisE
libapertium3-3.4.so.0:_ZNK8Apertium19Stream_5_3_3_Tagger20typeCount_d_MorphemeERKNS_5LemmaERKNS_1iE
libapertium3-3.4.so.0:_ZNK8Apertium19Stream_5_3_3_Tagger20typeCount_i_MorphemeERKNS_1iERKNS_5LemmaE
libapertium3-3.4.so.0:_ZNK8Apertium19Stream_5_3_3_Tagger21tokenCount_d_MorphemeERKNS_5LemmaE
libapertium3-3.4.so.0:_ZNK8Apertium19Stream_5_3_3_Tagger21tokenCount_i_MorphemeERKNS_1iE
libapertium3-3.4.so.0:_ZNK8Apertium19Stream_5_3_3_Tagger23tokenCount_d_i_MorphemeERKNS_5LemmaERKNS_1iE
libapertium3-3.4.so.0:_ZNK8Apertium19Stream_5_3_3_Tagger23tokenCount_i_d_MorphemeERKNS_1iERKNS_5LemmaE
libapertium3-3.4.so.0:_ZNK8Apertium19Stream_5_3_3_Tagger5scoreERKNS_8AnalysisE
libapertium3-3.4.so.0:_ZNK8Apertium21wchar_t_ExceptionType4whatEv
libapertium3-3.4.so.0:_ZNK8Apertium26Stream_5_3_1_TaggerTrainer9serialiseERSo
libapertium3-3.4.so.0:_ZNK8Apertium26Stream_5_3_2_TaggerTrainer9serialiseERSo
libapertium3-3.4.so.0:_ZNK8Apertium26Stream_5_3_3_TaggerTrainer9serialiseERSo
libapertium3-3.4.so.0:_ZNK8Apertium3TagcvNSt7__cxx1112basic_stringIwSt11char_traitsIwESaIwEEEB5cxx11Ev
libapertium3-3.4.so.0:_ZNK8Apertium6Stream12Message_whatERKNSt7__cxx1118basic_stringstreamIwSt11char_traitsIwESaIwEEE
libapertium3-3.4.so.0:_ZNK8Apertium6Stream43is_eof_throw_if_not_TheCharacterStream_goodEv
libapertium3-3.4.so.0:_ZNK8Apertium6Stream6flush_Ev
libapertium3-3.4.so.0:_ZNK8Apertium8AnalysiscvNSt7__cxx1112basic_stringIwSt11char_traitsIwESaIwEEEB5cxx11Ev
libapertium3-3.4.so.0:_ZNK8Apertium8MorphemecvNSt7__cxx1112basic_stringIwSt11char_traitsIwESaIwEEEB5cxx11Ev
libapertium3-3.4.so.0:_ZNK8Transfer10beginsWithERKNSt7__cxx1112basic_stringIcSt11char_traitsIcESaIcEEES7_
libapertium3-3.4.so.0:_ZNK8Transfer15getPreBilingualEv
libapertium3-3.4.so.0:_ZNK8Transfer15getUseBilingualEv
libapertium3-3.4.so.0:_ZNK8Transfer4tagsERKNSt7__cxx1112basic_stringIcSt11char_traitsIcESaIcEEE
libapertium3-3.4.so.0:_ZNK8Transfer7tolowerERKNSt7__cxx1112basic_stringIcSt11char_traitsIcESaIcEEE
libapertium3-3.4.so.0:_ZNK8Transfer8endsWithERKNSt7__cxx1112basic_stringIcSt11char_traitsIcESaIcEEES7_
libapertium3-3.4.so.0:_ZNK9Arguments14checkEmptyArgsEv
libapertium3-3.4.so.0:_ZNK9Arguments14getSwitchConstERKNSt7__cxx1112basic_stringIcSt11char_traitsIcESaIcEEERb
libapertium3-3.4.so.0:_ZNK9Postchunk10beginsWithERKNSt7__cxx1112basic_stringIcSt11char_traitsIcESaIcEEES7_
libapertium3-3.4.so.0:_ZNK9Postchunk4tagsERKNSt7__cxx1112basic_stringIcSt11char_traitsIcESaIcEEE
libapertium3-3.4.so.0:_ZNK9Postchunk7tolowerERKNSt7__cxx1112basic_stringIcSt11char_traitsIcESaIcEEE
libapertium3-3.4.so.0:_ZNK9Postchunk8endsWithERKNSt7__cxx1112basic_stringIcSt11char_traitsIcESaIcEEES7_
libapertium3-3.4.so.0:_ZlsRSoSt4pairIiiE
libapertium3-3.4.so.0:_ZlsRSt13basic_ostreamIwSt11char_traitsIwEER10TaggerWord
